---
triple:          'arm64-apple-darwin'
binary-path:     main
relocations:
  - { offsetInCU: 0x67E0, offset: 0x67E0, size: 0x8, addend: 0x0, symName: __ZNSt3__124__put_character_sequenceB7v160006IcNS_11char_traitsIcEEEERNS_13basic_ostreamIT_T0_EES7_PKS4_m, symObjAddr: 0x5ED4, symBinAddr: 0x100006CE4, symSize: 0x1F4 }
  - { offsetInCU: 0x8074, offset: 0x8074, size: 0x8, addend: 0x0, symName: __ZNSt3__17getlineB7v160006IcNS_11char_traitsIcEENS_9allocatorIcEEEERNS_13basic_istreamIT_T0_EES9_RNS_12basic_stringIS6_S7_T1_EE, symObjAddr: 0x5E0, symBinAddr: 0x1000013F0, symSize: 0x5C }
  - { offsetInCU: 0x8A51, offset: 0x8A51, size: 0x8, addend: 0x0, symName: __ZNSt3__1rsB7v160006IcNS_11char_traitsIcEENS_9allocatorIcEEEERNS_13basic_istreamIT_T0_EES9_RNS_12basic_stringIS6_S7_T1_EE, symObjAddr: 0x758, symBinAddr: 0x100001568, symSize: 0x320 }
  - { offsetInCU: 0x8B20, offset: 0x8B20, size: 0x8, addend: 0x0, symName: __ZNSt3__19make_pairB7v160006IRNS_12basic_stringIcNS_11char_traitsIcEENS_9allocatorIcEEEERiEENS_4pairINS_18__unwrap_ref_decayIT_E4typeENSA_IT0_E4typeEEEOSB_OSE_, symObjAddr: 0xB30, symBinAddr: 0x100001940, symSize: 0x40 }
  - { offsetInCU: 0x8B7A, offset: 0x8B7A, size: 0x8, addend: 0x0, symName: __ZNSt3__1lsB7v160006INS_11char_traitsIcEEEERNS_13basic_ostreamIcT_EES6_c, symObjAddr: 0xCD0, symBinAddr: 0x100001AE0, symSize: 0x34 }
  - { offsetInCU: 0x8BC0, offset: 0x8BC0, size: 0x8, addend: 0x0, symName: __ZNSt3__1lsB7v160006IcNS_11char_traitsIcEENS_9allocatorIcEEEERNS_13basic_ostreamIT_T0_EES9_RKNS_12basic_stringIS6_S7_T1_EE, symObjAddr: 0xD04, symBinAddr: 0x100001B14, symSize: 0x4C }
  - { offsetInCU: 0x8C18, offset: 0x8C18, size: 0x8, addend: 0x0, symName: __ZNSt3__119__debug_db_insert_cB7v160006INS_12basic_stringIcNS_11char_traitsIcEENS_9allocatorIcEEEEEEvPT_, symObjAddr: 0x104C, symBinAddr: 0x100001E5C, symSize: 0x10 }
  - { offsetInCU: 0x8C49, offset: 0x8C49, size: 0x8, addend: 0x0, symName: __ZNSt3__130__libcpp_is_constant_evaluatedB7v160006Ev, symObjAddr: 0x11EC, symBinAddr: 0x100001FFC, symSize: 0xC }
  - { offsetInCU: 0x8C66, offset: 0x8C66, size: 0x8, addend: 0x0, symName: __ZNSt3__117__libcpp_allocateB7v160006Emm, symObjAddr: 0x14E4, symBinAddr: 0x1000022F4, symSize: 0x28 }
  - { offsetInCU: 0x8CA3, offset: 0x8CA3, size: 0x8, addend: 0x0, symName: __ZNSt3__121__libcpp_operator_newB7v160006IJmEEEPvDpT_, symObjAddr: 0x1520, symBinAddr: 0x100002330, symSize: 0x24 }
  - { offsetInCU: 0x8CDC, offset: 0x8CDC, size: 0x8, addend: 0x0, symName: __ZNSt3__119__debug_db_insert_cB7v160006INS_6vectorINS_4pairINS_12basic_stringIcNS_11char_traitsIcEENS_9allocatorIcEEEEiEENS6_IS9_EEEEEEvPT_, symObjAddr: 0x1604, symBinAddr: 0x100002414, symSize: 0x10 }
  - { offsetInCU: 0x8D0D, offset: 0x8D0D, size: 0x8, addend: 0x0, symName: __ZNSt3__118__debug_db_erase_cB7v160006INS_6vectorINS_4pairINS_12basic_stringIcNS_11char_traitsIcEENS_9allocatorIcEEEEiEENS6_IS9_EEEEEEvPT_, symObjAddr: 0x18C0, symBinAddr: 0x1000026D0, symSize: 0x10 }
  - { offsetInCU: 0x8D3E, offset: 0x8D3E, size: 0x8, addend: 0x0, symName: __ZNSt3__112__to_addressB7v160006INS_4pairINS_12basic_stringIcNS_11char_traitsIcEENS_9allocatorIcEEEEiEEEEPT_SA_, symObjAddr: 0x19DC, symBinAddr: 0x1000027EC, symSize: 0x14 }
  - { offsetInCU: 0x8D73, offset: 0x8D73, size: 0x8, addend: 0x0, symName: __ZNSt3__119__libcpp_deallocateB7v160006EPvmm, symObjAddr: 0x1B54, symBinAddr: 0x100002964, symSize: 0x30 }
  - { offsetInCU: 0x8DBB, offset: 0x8DBB, size: 0x8, addend: 0x0, symName: __ZNSt3__127__do_deallocate_handle_sizeB7v160006IJEEEvPvmDpT_, symObjAddr: 0x1B84, symBinAddr: 0x100002994, symSize: 0x28 }
  - { offsetInCU: 0x8DF9, offset: 0x8DF9, size: 0x8, addend: 0x0, symName: __ZNSt3__124__libcpp_operator_deleteB7v160006IJPvEEEvDpT_, symObjAddr: 0x1BAC, symBinAddr: 0x1000029BC, symSize: 0x24 }
  - { offsetInCU: 0x8E2E, offset: 0x8E2E, size: 0x8, addend: 0x0, symName: __ZNSt3__119__debug_db_insert_cB7v160006INS_6vectorIiNS_9allocatorIiEEEEEEvPT_, symObjAddr: 0x1CF0, symBinAddr: 0x100002B00, symSize: 0x10 }
  - { offsetInCU: 0x8E5F, offset: 0x8E5F, size: 0x8, addend: 0x0, symName: __ZNSt3__118__debug_db_erase_cB7v160006INS_6vectorIiNS_9allocatorIiEEEEEEvPT_, symObjAddr: 0x1FAC, symBinAddr: 0x100002DBC, symSize: 0x10 }
  - { offsetInCU: 0x8E90, offset: 0x8E90, size: 0x8, addend: 0x0, symName: __ZNSt3__112__to_addressB7v160006IiEEPT_S2_, symObjAddr: 0x20F0, symBinAddr: 0x100002F00, symSize: 0x14 }
  - { offsetInCU: 0x8EC5, offset: 0x8EC5, size: 0x8, addend: 0x0, symName: __ZNSt3__17getlineB7v160006IcNS_11char_traitsIcEENS_9allocatorIcEEEERNS_13basic_istreamIT_T0_EES9_RNS_12basic_stringIS6_S7_T1_EES6_, symObjAddr: 0x22EC, symBinAddr: 0x1000030FC, symSize: 0x238 }
  - { offsetInCU: 0x8F83, offset: 0x8F83, size: 0x8, addend: 0x0, symName: __ZNSt3__125__debug_db_invalidate_allB7v160006INS_12basic_stringIcNS_11char_traitsIcEENS_9allocatorIcEEEEEEvPT_, symObjAddr: 0x2920, symBinAddr: 0x100003730, symSize: 0x10 }
  - { offsetInCU: 0x91E9, offset: 0x91E9, size: 0x8, addend: 0x0, symName: __ZNSt3__19use_facetB7v160006INS_5ctypeIcEEEERKT_RKNS_6localeE, symObjAddr: 0x2C28, symBinAddr: 0x100003A38, symSize: 0x2C }
  - { offsetInCU: 0x97CA, offset: 0x97CA, size: 0x8, addend: 0x0, symName: __ZNSt3__13maxB7v160006ImEERKT_S3_S3_, symObjAddr: 0x3808, symBinAddr: 0x100004618, symSize: 0x2C }
  - { offsetInCU: 0x980D, offset: 0x980D, size: 0x8, addend: 0x0, symName: __ZNSt3__13minB7v160006ImEERKT_S3_S3_, symObjAddr: 0x3834, symBinAddr: 0x100004644, symSize: 0x2C }
  - { offsetInCU: 0x9850, offset: 0x9850, size: 0x8, addend: 0x0, symName: __ZNSt3__13minB7v160006ImNS_6__lessImmEEEERKT_S5_S5_T0_, symObjAddr: 0x38AC, symBinAddr: 0x1000046BC, symSize: 0x54 }
  - { offsetInCU: 0x98E5, offset: 0x98E5, size: 0x8, addend: 0x0, symName: __ZNSt3__120__throw_length_errorB7v160006EPKc, symObjAddr: 0x3980, symBinAddr: 0x100004790, symSize: 0x64 }
  - { offsetInCU: 0x990D, offset: 0x990D, size: 0x8, addend: 0x0, symName: __ZNSt3__13maxB7v160006ImNS_6__lessImmEEEERKT_S5_S5_T0_, symObjAddr: 0x3A64, symBinAddr: 0x100004874, symSize: 0x54 }
  - { offsetInCU: 0x9967, offset: 0x9967, size: 0x8, addend: 0x0, symName: __ZNSt3__119__allocate_at_leastB7v160006INS_9allocatorIiEEEENS_19__allocation_resultINS_16allocator_traitsIT_E7pointerEEERS5_m, symObjAddr: 0x3BC8, symBinAddr: 0x1000049D8, symSize: 0x40 }
  - { offsetInCU: 0x99AA, offset: 0x99AA, size: 0x8, addend: 0x0, symName: __ZNSt3__142__uninitialized_allocator_move_if_noexceptB7v160006INS_9allocatorIiEENS_16reverse_iteratorIPiEES5_ivEET1_RT_T0_S9_S6_, symObjAddr: 0x3DA8, symBinAddr: 0x100004BB8, symSize: 0xE8 }
  - { offsetInCU: 0x9A27, offset: 0x9A27, size: 0x8, addend: 0x0, symName: __ZNSt3__14swapB7v160006IPiEEvRT_S3_, symObjAddr: 0x3EDC, symBinAddr: 0x100004CEC, symSize: 0x3C }
  - { offsetInCU: 0x9A78, offset: 0x9A78, size: 0x8, addend: 0x0, symName: __ZNSt3__125__debug_db_invalidate_allB7v160006INS_6vectorIiNS_9allocatorIiEEEEEEvPT_, symObjAddr: 0x3FC4, symBinAddr: 0x100004DD4, symSize: 0x10 }
  - { offsetInCU: 0x9AA9, offset: 0x9AA9, size: 0x8, addend: 0x0, symName: __ZNSt3__1neB7v160006IPiS1_EEbRKNS_16reverse_iteratorIT_EERKNS2_IT0_EE, symObjAddr: 0x3FD4, symBinAddr: 0x100004DE4, symSize: 0x48 }
  - { offsetInCU: 0x9B1A, offset: 0x9B1A, size: 0x8, addend: 0x0, symName: __ZNSt3__114__construct_atB7v160006IiJiEPiEEPT_S3_DpOT0_, symObjAddr: 0x401C, symBinAddr: 0x100004E2C, symSize: 0x2C }
  - { offsetInCU: 0x9B8A, offset: 0x9B8A, size: 0x8, addend: 0x0, symName: __ZNSt3__112__to_addressB7v160006INS_16reverse_iteratorIPiEEvEENS_5decayIDTclsr19__to_address_helperIT_EE6__callclsr3stdE7declvalIRKS5_EEEEE4typeES7_, symObjAddr: 0x4048, symBinAddr: 0x100004E58, symSize: 0x24 }
  - { offsetInCU: 0x9BC0, offset: 0x9BC0, size: 0x8, addend: 0x0, symName: __ZNSt3__14moveB7v160006INS_16reverse_iteratorIPiEES3_EET0_T_S5_S4_, symObjAddr: 0x40B4, symBinAddr: 0x100004EC4, symSize: 0x78 }
  - { offsetInCU: 0x9C43, offset: 0x9C43, size: 0x8, addend: 0x0, symName: __ZNSt3__16__moveB7v160006INS_17_ClassicAlgPolicyENS_16reverse_iteratorIPiEES4_S4_EENS_4pairIT0_T2_EES6_T1_S7_, symObjAddr: 0x419C, symBinAddr: 0x100004FAC, symSize: 0x64 }
  - { offsetInCU: 0x9CAF, offset: 0x9CAF, size: 0x8, addend: 0x0, symName: __ZNSt3__123__dispatch_copy_or_moveB7v160006INS_17_ClassicAlgPolicyENS_11__move_loopIS1_EENS_14__move_trivialENS_16reverse_iteratorIPiEES7_S7_EENS_4pairIT2_T4_EES9_T3_SA_, symObjAddr: 0x4200, symBinAddr: 0x100005010, symSize: 0x7C }
  - { offsetInCU: 0x9D2D, offset: 0x9D2D, size: 0x8, addend: 0x0, symName: __ZNSt3__121__unwrap_and_dispatchB7v160006INS_10__overloadINS_11__move_loopINS_17_ClassicAlgPolicyEEENS_14__move_trivialEEENS_16reverse_iteratorIPiEES9_S9_Li0EEENS_4pairIT0_T2_EESB_T1_SC_, symObjAddr: 0x427C, symBinAddr: 0x10000508C, symSize: 0x12C }
  - { offsetInCU: 0x9DBD, offset: 0x9DBD, size: 0x8, addend: 0x0, symName: __ZNSt3__114__unwrap_rangeB7v160006INS_16reverse_iteratorIPiEES3_EENS_4pairIT0_S5_EET_S7_, symObjAddr: 0x43A8, symBinAddr: 0x1000051B8, symSize: 0x84 }
  - { offsetInCU: 0x9F11, offset: 0x9F11, size: 0x8, addend: 0x0, symName: __ZNSt3__113__unwrap_iterB7v160006INS_16reverse_iteratorIPiEENS_18__unwrap_iter_implIS3_Lb0EEELi0EEEDTclsrT0_8__unwrapclsr3stdE7declvalIT_EEEES7_, symObjAddr: 0x44CC, symBinAddr: 0x1000052DC, symSize: 0x44 }
  - { offsetInCU: 0x9F55, offset: 0x9F55, size: 0x8, addend: 0x0, symName: __ZNSt3__19make_pairB7v160006INS_16reverse_iteratorIPiEES3_EENS_4pairINS_18__unwrap_ref_decayIT_E4typeENS5_IT0_E4typeEEEOS6_OS9_, symObjAddr: 0x4510, symBinAddr: 0x100005320, symSize: 0x38 }
  - { offsetInCU: 0x9FA4, offset: 0x9FA4, size: 0x8, addend: 0x0, symName: __ZNSt3__114__rewrap_rangeB7v160006INS_16reverse_iteratorIPiEES3_EET_S4_T0_, symObjAddr: 0x4548, symBinAddr: 0x100005358, symSize: 0x5C }
  - { offsetInCU: 0x9FF0, offset: 0x9FF0, size: 0x8, addend: 0x0, symName: __ZNSt3__113__rewrap_iterB7v160006INS_16reverse_iteratorIPiEES3_NS_18__unwrap_iter_implIS3_Lb0EEEEET_S6_T0_, symObjAddr: 0x45A4, symBinAddr: 0x1000053B4, symSize: 0x88 }
  - { offsetInCU: 0xA0F7, offset: 0xA0F7, size: 0x8, addend: 0x0, symName: __ZNSt3__119__allocate_at_leastB7v160006INS_9allocatorINS_4pairINS_12basic_stringIcNS_11char_traitsIcEENS1_IcEEEEiEEEEEENS_19__allocation_resultINS_16allocator_traitsIT_E7pointerEEERSC_m, symObjAddr: 0x5258, symBinAddr: 0x100006068, symSize: 0x40 }
  - { offsetInCU: 0xA13A, offset: 0xA13A, size: 0x8, addend: 0x0, symName: __ZNSt3__142__uninitialized_allocator_move_if_noexceptB7v160006INS_9allocatorINS_4pairINS_12basic_stringIcNS_11char_traitsIcEENS1_IcEEEEiEEEENS_16reverse_iteratorIPS8_EESC_SC_EET2_RT_T0_T1_SD_, symObjAddr: 0x5438, symBinAddr: 0x100006248, symSize: 0x134 }
  - { offsetInCU: 0xA1DA, offset: 0xA1DA, size: 0x8, addend: 0x0, symName: __ZNSt3__14swapB7v160006IPNS_4pairINS_12basic_stringIcNS_11char_traitsIcEENS_9allocatorIcEEEEiEEEEvRT_SB_, symObjAddr: 0x55B8, symBinAddr: 0x1000063C8, symSize: 0x3C }
  - { offsetInCU: 0xA22B, offset: 0xA22B, size: 0x8, addend: 0x0, symName: __ZNSt3__125__debug_db_invalidate_allB7v160006INS_6vectorINS_4pairINS_12basic_stringIcNS_11char_traitsIcEENS_9allocatorIcEEEEiEENS6_IS9_EEEEEEvPT_, symObjAddr: 0x56A0, symBinAddr: 0x1000064B0, symSize: 0x10 }
  - { offsetInCU: 0xA25C, offset: 0xA25C, size: 0x8, addend: 0x0, symName: __ZNSt3__122__make_exception_guardB7v160006INS_29_AllocatorDestroyRangeReverseINS_9allocatorINS_4pairINS_12basic_stringIcNS_11char_traitsIcEENS2_IcEEEEiEEEENS_16reverse_iteratorIPS9_EEEEEENS_28__exception_guard_exceptionsIT_EESG_, symObjAddr: 0x56B0, symBinAddr: 0x1000064C0, symSize: 0x4C }
  - { offsetInCU: 0xA292, offset: 0xA292, size: 0x8, addend: 0x0, symName: __ZNSt3__1neB7v160006IPNS_4pairINS_12basic_stringIcNS_11char_traitsIcEENS_9allocatorIcEEEEiEES9_EEbRKNS_16reverse_iteratorIT_EERKNSA_IT0_EE, symObjAddr: 0x5740, symBinAddr: 0x100006550, symSize: 0x48 }
  - { offsetInCU: 0xA2DE, offset: 0xA2DE, size: 0x8, addend: 0x0, symName: __ZNSt3__112__to_addressB7v160006INS_16reverse_iteratorIPNS_4pairINS_12basic_stringIcNS_11char_traitsIcEENS_9allocatorIcEEEEiEEEEvEENS_5decayIDTclsr19__to_address_helperIT_EE6__callclsr3stdE7declvalIRKSD_EEEEE4typeESF_, symObjAddr: 0x5788, symBinAddr: 0x100006598, symSize: 0x24 }
  - { offsetInCU: 0xA33D, offset: 0xA33D, size: 0x8, addend: 0x0, symName: __ZNSt3__119__allocator_destroyB7v160006INS_9allocatorINS_4pairINS_12basic_stringIcNS_11char_traitsIcEENS1_IcEEEEiEEEENS_16reverse_iteratorINSA_IPS8_EEEESD_EEvRT_T0_T1_, symObjAddr: 0x5A44, symBinAddr: 0x100006854, symSize: 0x70 }
  - { offsetInCU: 0xA3A2, offset: 0xA3A2, size: 0x8, addend: 0x0, symName: __ZNSt3__1neB7v160006INS_16reverse_iteratorIPNS_4pairINS_12basic_stringIcNS_11char_traitsIcEENS_9allocatorIcEEEEiEEEESB_EEbRKNS1_IT_EERKNS1_IT0_EE, symObjAddr: 0x5AF0, symBinAddr: 0x100006900, symSize: 0x60 }
  - { offsetInCU: 0xA3EE, offset: 0xA3EE, size: 0x8, addend: 0x0, symName: __ZNSt3__112__to_addressB7v160006INS_16reverse_iteratorINS1_IPNS_4pairINS_12basic_stringIcNS_11char_traitsIcEENS_9allocatorIcEEEEiEEEEEEvEENS_5decayIDTclsr19__to_address_helperIT_EE6__callclsr3stdE7declvalIRKSE_EEEEE4typeESG_, symObjAddr: 0x5B50, symBinAddr: 0x100006960, symSize: 0x24 }
  - { offsetInCU: 0xA44D, offset: 0xA44D, size: 0x8, addend: 0x0, symName: __ZNSt3__116__pad_and_outputB7v160006IcNS_11char_traitsIcEEEENS_19ostreambuf_iteratorIT_T0_EES6_PKS4_S8_S8_RNS_8ios_baseES4_, symObjAddr: 0x610C, symBinAddr: 0x100006F1C, symSize: 0x248 }
  - { offsetInCU: 0xA51C, offset: 0xA51C, size: 0x8, addend: 0x0, symName: __ZNSt3__112__to_addressB7v160006IKcEEPT_S3_, symObjAddr: 0x655C, symBinAddr: 0x10000736C, symSize: 0x14 }
  - { offsetInCU: 0xA79F, offset: 0xA79F, size: 0x8, addend: 0x0, symName: __ZSt28__throw_bad_array_new_lengthB7v160006v, symObjAddr: 0x14B0, symBinAddr: 0x1000022C0, symSize: 0x34 }
  - { offsetInCU: 0xADD7, offset: 0xADD7, size: 0x8, addend: 0x0, symName: __ZNSt3__16vectorIiNS_9allocatorIiEEE26__swap_out_circular_bufferERNS_14__split_bufferIiRS2_EE, symObjAddr: 0x3634, symBinAddr: 0x100004444, symSize: 0x118 }
  - { offsetInCU: 0xAE2C, offset: 0xAE2C, size: 0x8, addend: 0x0, symName: __ZNSt3__16vectorINS_4pairINS_12basic_stringIcNS_11char_traitsIcEENS_9allocatorIcEEEEiEENS5_IS8_EEE26__swap_out_circular_bufferERNS_14__split_bufferIS8_RS9_EE, symObjAddr: 0x4EDC, symBinAddr: 0x100005CEC, symSize: 0x118 }
  - { offsetInCU: 0xD164, offset: 0xD164, size: 0x8, addend: 0x0, symName: __Z8DistanceRNSt3__16vectorIiNS_9allocatorIiEEEES4_i, symObjAddr: 0x0, symBinAddr: 0x100000E10, symSize: 0x98 }
  - { offsetInCU: 0xD1D8, offset: 0xD1D8, size: 0x8, addend: 0x0, symName: __ZNSt3__16vectorIiNS_9allocatorIiEEEixB7v160006Em, symObjAddr: 0x98, symBinAddr: 0x100000EA8, symSize: 0x24 }
  - { offsetInCU: 0xD20E, offset: 0xD20E, size: 0x8, addend: 0x0, symName: __Z8word2vecii, symObjAddr: 0xBC, symBinAddr: 0x100000ECC, symSize: 0x4A0 }
  - { offsetInCU: 0xD36B, offset: 0xD36B, size: 0x8, addend: 0x0, symName: __ZNSt3__112basic_stringIcNS_11char_traitsIcEENS_9allocatorIcEEEC1B7v160006Ev, symObjAddr: 0x55C, symBinAddr: 0x10000136C, symSize: 0x2C }
  - { offsetInCU: 0xD394, offset: 0xD394, size: 0x8, addend: 0x0, symName: __ZNSt3__16vectorINS_4pairINS_12basic_stringIcNS_11char_traitsIcEENS_9allocatorIcEEEEiEENS5_IS8_EEEC1B7v160006Ev, symObjAddr: 0x588, symBinAddr: 0x100001398, symSize: 0x2C }
  - { offsetInCU: 0xD3BD, offset: 0xD3BD, size: 0x8, addend: 0x0, symName: __ZNSt3__16vectorIiNS_9allocatorIiEEEC1B7v160006Ev, symObjAddr: 0x5B4, symBinAddr: 0x1000013C4, symSize: 0x2C }
  - { offsetInCU: 0xD4CB, offset: 0xD4CB, size: 0x8, addend: 0x0, symName: __ZNSt3__118basic_stringstreamIcNS_11char_traitsIcEENS_9allocatorIcEEEC1B7v160006ERKNS_12basic_stringIcS2_S4_EEj, symObjAddr: 0x63C, symBinAddr: 0x10000144C, symSize: 0x11C }
  - { offsetInCU: 0xD511, offset: 0xD511, size: 0x8, addend: 0x0, symName: __ZNSt3__16vectorIiNS_9allocatorIiEEE9push_backB7v160006ERKi, symObjAddr: 0xA78, symBinAddr: 0x100001888, symSize: 0x6C }
  - { offsetInCU: 0xD547, offset: 0xD547, size: 0x8, addend: 0x0, symName: __ZNSt3__16vectorIiNS_9allocatorIiEEE5clearB7v160006Ev, symObjAddr: 0xAE4, symBinAddr: 0x1000018F4, symSize: 0x4C }
  - { offsetInCU: 0xD57A, offset: 0xD57A, size: 0x8, addend: 0x0, symName: __ZNSt3__16vectorINS_4pairINS_12basic_stringIcNS_11char_traitsIcEENS_9allocatorIcEEEEiEENS5_IS8_EEE9push_backB7v160006ERKS8_, symObjAddr: 0xB70, symBinAddr: 0x100001980, symSize: 0x6C }
  - { offsetInCU: 0xD5B0, offset: 0xD5B0, size: 0x8, addend: 0x0, symName: __ZNSt3__14pairINS_12basic_stringIcNS_11char_traitsIcEENS_9allocatorIcEEEEiED1Ev, symObjAddr: 0xBDC, symBinAddr: 0x1000019EC, symSize: 0x2C }
  - { offsetInCU: 0xD5E0, offset: 0xD5E0, size: 0x8, addend: 0x0, symName: __ZNSt3__118basic_stringstreamIcNS_11char_traitsIcEENS_9allocatorIcEEED1Ev, symObjAddr: 0xC14, symBinAddr: 0x100001A24, symSize: 0x70 }
  - { offsetInCU: 0xD60C, offset: 0xD60C, size: 0x8, addend: 0x0, symName: __ZNKSt3__16vectorINS_4pairINS_12basic_stringIcNS_11char_traitsIcEENS_9allocatorIcEEEEiEENS5_IS8_EEE4sizeB7v160006Ev, symObjAddr: 0xC84, symBinAddr: 0x100001A94, symSize: 0x28 }
  - { offsetInCU: 0xD631, offset: 0xD631, size: 0x8, addend: 0x0, symName: __ZNSt3__16vectorINS_4pairINS_12basic_stringIcNS_11char_traitsIcEENS_9allocatorIcEEEEiEENS5_IS8_EEEixB7v160006Em, symObjAddr: 0xCAC, symBinAddr: 0x100001ABC, symSize: 0x24 }
  - { offsetInCU: 0xD667, offset: 0xD667, size: 0x8, addend: 0x0, symName: __ZNSt3__16vectorIiNS_9allocatorIiEEED1B7v160006Ev, symObjAddr: 0xD50, symBinAddr: 0x100001B60, symSize: 0x2C }
  - { offsetInCU: 0xD690, offset: 0xD690, size: 0x8, addend: 0x0, symName: __ZNSt3__16vectorINS_4pairINS_12basic_stringIcNS_11char_traitsIcEENS_9allocatorIcEEEEiEENS5_IS8_EEED1B7v160006Ev, symObjAddr: 0xD7C, symBinAddr: 0x100001B8C, symSize: 0x2C }
  - { offsetInCU: 0xD6B9, offset: 0xD6B9, size: 0x8, addend: 0x0, symName: _main, symObjAddr: 0xDA8, symBinAddr: 0x100001BB8, symSize: 0x64 }
  - { offsetInCU: 0xD6F0, offset: 0xD6F0, size: 0x8, addend: 0x0, symName: __ZNSt3__111char_traitsIcE3eofEv, symObjAddr: 0xE0C, symBinAddr: 0x100001C1C, symSize: 0x8 }
  - { offsetInCU: 0xD704, offset: 0xD704, size: 0x8, addend: 0x0, symName: __ZNSt3__14pairINS_12basic_stringIcNS_11char_traitsIcEENS_9allocatorIcEEEEiED2Ev, symObjAddr: 0xE14, symBinAddr: 0x100001C24, symSize: 0x2C }
  - { offsetInCU: 0xD72F, offset: 0xD72F, size: 0x8, addend: 0x0, symName: __ZNSt3__118basic_stringstreamIcNS_11char_traitsIcEENS_9allocatorIcEEED2Ev, symObjAddr: 0xE40, symBinAddr: 0x100001C50, symSize: 0xA4 }
  - { offsetInCU: 0xD767, offset: 0xD767, size: 0x8, addend: 0x0, symName: __ZThn16_NSt3__118basic_stringstreamIcNS_11char_traitsIcEENS_9allocatorIcEEED1Ev, symObjAddr: 0xEE4, symBinAddr: 0x100001CF4, symSize: 0x1C }
  - { offsetInCU: 0xD77E, offset: 0xD77E, size: 0x8, addend: 0x0, symName: __ZTv0_n24_NSt3__118basic_stringstreamIcNS_11char_traitsIcEENS_9allocatorIcEEED1Ev, symObjAddr: 0xF00, symBinAddr: 0x100001D10, symSize: 0x28 }
  - { offsetInCU: 0xD79A, offset: 0xD79A, size: 0x8, addend: 0x0, symName: __ZNSt3__115basic_stringbufIcNS_11char_traitsIcEENS_9allocatorIcEEED1Ev, symObjAddr: 0xF28, symBinAddr: 0x100001D38, symSize: 0x2C }
  - { offsetInCU: 0xD7C6, offset: 0xD7C6, size: 0x8, addend: 0x0, symName: __ZNSt3__115basic_stringbufIcNS_11char_traitsIcEENS_9allocatorIcEEED2Ev, symObjAddr: 0xF54, symBinAddr: 0x100001D64, symSize: 0x78 }
  - { offsetInCU: 0xD7F2, offset: 0xD7F2, size: 0x8, addend: 0x0, symName: __ZNSt3__112basic_stringIcNS_11char_traitsIcEENS_9allocatorIcEEEC2B7v160006Ev, symObjAddr: 0xFCC, symBinAddr: 0x100001DDC, symSize: 0x44 }
  - { offsetInCU: 0xD820, offset: 0xD820, size: 0x8, addend: 0x0, symName: __ZNSt3__117__compressed_pairINS_12basic_stringIcNS_11char_traitsIcEENS_9allocatorIcEEE5__repES5_EC1B7v160006INS_18__default_init_tagESA_EEOT_OT0_, symObjAddr: 0x1010, symBinAddr: 0x100001E20, symSize: 0x3C }
  - { offsetInCU: 0xD877, offset: 0xD877, size: 0x8, addend: 0x0, symName: __ZNSt3__112basic_stringIcNS_11char_traitsIcEENS_9allocatorIcEEE14__default_initB7v160006Ev, symObjAddr: 0x105C, symBinAddr: 0x100001E6C, symSize: 0xB0 }
  - { offsetInCU: 0xD8C9, offset: 0xD8C9, size: 0x8, addend: 0x0, symName: __ZNSt3__117__compressed_pairINS_12basic_stringIcNS_11char_traitsIcEENS_9allocatorIcEEE5__repES5_EC2B7v160006INS_18__default_init_tagESA_EEOT_OT0_, symObjAddr: 0x110C, symBinAddr: 0x100001F1C, symSize: 0x3C }
  - { offsetInCU: 0xD920, offset: 0xD920, size: 0x8, addend: 0x0, symName: __ZNSt3__122__compressed_pair_elemINS_12basic_stringIcNS_11char_traitsIcEENS_9allocatorIcEEE5__repELi0ELb0EEC2B7v160006ENS_18__default_init_tagE, symObjAddr: 0x1148, symBinAddr: 0x100001F58, symSize: 0x14 }
  - { offsetInCU: 0xD954, offset: 0xD954, size: 0x8, addend: 0x0, symName: __ZNSt3__122__compressed_pair_elemINS_9allocatorIcEELi1ELb1EEC2B7v160006ENS_18__default_init_tagE, symObjAddr: 0x115C, symBinAddr: 0x100001F6C, symSize: 0x2C }
  - { offsetInCU: 0xD988, offset: 0xD988, size: 0x8, addend: 0x0, symName: __ZNSt3__19allocatorIcEC2B7v160006Ev, symObjAddr: 0x1188, symBinAddr: 0x100001F98, symSize: 0x2C }
  - { offsetInCU: 0xD9B1, offset: 0xD9B1, size: 0x8, addend: 0x0, symName: __ZNSt3__116__non_trivial_ifILb1ENS_9allocatorIcEEEC2B7v160006Ev, symObjAddr: 0x11B4, symBinAddr: 0x100001FC4, symSize: 0x14 }
  - { offsetInCU: 0xD9DA, offset: 0xD9DA, size: 0x8, addend: 0x0, symName: __ZNSt3__117__compressed_pairINS_12basic_stringIcNS_11char_traitsIcEENS_9allocatorIcEEE5__repES5_E5firstB7v160006Ev, symObjAddr: 0x11C8, symBinAddr: 0x100001FD8, symSize: 0x24 }
  - { offsetInCU: 0xD9FF, offset: 0xD9FF, size: 0x8, addend: 0x0, symName: __ZNSt3__112basic_stringIcNS_11char_traitsIcEENS_9allocatorIcEEE11__recommendB7v160006Em, symObjAddr: 0x11F8, symBinAddr: 0x100002008, symSize: 0x9C }
  - { offsetInCU: 0xDA32, offset: 0xDA32, size: 0x8, addend: 0x0, symName: __ZNSt3__116allocator_traitsINS_9allocatorIcEEE8allocateB7v160006ERS2_m, symObjAddr: 0x1294, symBinAddr: 0x1000020A4, symSize: 0x2C }
  - { offsetInCU: 0xDA65, offset: 0xDA65, size: 0x8, addend: 0x0, symName: __ZNSt3__112basic_stringIcNS_11char_traitsIcEENS_9allocatorIcEEE7__allocB7v160006Ev, symObjAddr: 0x12C0, symBinAddr: 0x1000020D0, symSize: 0x24 }
  - { offsetInCU: 0xDA8A, offset: 0xDA8A, size: 0x8, addend: 0x0, symName: __ZNSt3__112basic_stringIcNS_11char_traitsIcEENS_9allocatorIcEEE16__begin_lifetimeB7v160006EPcm, symObjAddr: 0x12E4, symBinAddr: 0x1000020F4, symSize: 0x14 }
  - { offsetInCU: 0xDABD, offset: 0xDABD, size: 0x8, addend: 0x0, symName: __ZNSt3__112basic_stringIcNS_11char_traitsIcEENS_9allocatorIcEEE18__set_long_pointerB7v160006EPc, symObjAddr: 0x12F8, symBinAddr: 0x100002108, symSize: 0x38 }
  - { offsetInCU: 0xDAF1, offset: 0xDAF1, size: 0x8, addend: 0x0, symName: __ZNSt3__112basic_stringIcNS_11char_traitsIcEENS_9allocatorIcEEE14__set_long_capB7v160006Em, symObjAddr: 0x1330, symBinAddr: 0x100002140, symSize: 0x70 }
  - { offsetInCU: 0xDB25, offset: 0xDB25, size: 0x8, addend: 0x0, symName: __ZNSt3__112basic_stringIcNS_11char_traitsIcEENS_9allocatorIcEEE15__set_long_sizeB7v160006Em, symObjAddr: 0x13A0, symBinAddr: 0x1000021B0, symSize: 0x38 }
  - { offsetInCU: 0xDB59, offset: 0xDB59, size: 0x8, addend: 0x0, symName: __ZNSt3__122__compressed_pair_elemINS_12basic_stringIcNS_11char_traitsIcEENS_9allocatorIcEEE5__repELi0ELb0EE5__getB7v160006Ev, symObjAddr: 0x13D8, symBinAddr: 0x1000021E8, symSize: 0x14 }
  - { offsetInCU: 0xDB7E, offset: 0xDB7E, size: 0x8, addend: 0x0, symName: __ZNSt3__112basic_stringIcNS_11char_traitsIcEENS_9allocatorIcEEE10__align_itB7v160006ILm16EEEmm, symObjAddr: 0x13EC, symBinAddr: 0x1000021FC, symSize: 0x1C }
  - { offsetInCU: 0xDBAC, offset: 0xDBAC, size: 0x8, addend: 0x0, symName: __ZNSt3__19allocatorIcE8allocateB7v160006Em, symObjAddr: 0x1408, symBinAddr: 0x100002218, symSize: 0x84 }
  - { offsetInCU: 0xDBE9, offset: 0xDBE9, size: 0x8, addend: 0x0, symName: __ZNSt3__116allocator_traitsINS_9allocatorIcEEE8max_sizeB7v160006IS2_vEEmRKS2_, symObjAddr: 0x148C, symBinAddr: 0x10000229C, symSize: 0x24 }
  - { offsetInCU: 0xDC17, offset: 0xDC17, size: 0x8, addend: 0x0, symName: __ZNKSt3__19allocatorIcE8max_sizeB7v160006Ev, symObjAddr: 0x150C, symBinAddr: 0x10000231C, symSize: 0x14 }
  - { offsetInCU: 0xDC3C, offset: 0xDC3C, size: 0x8, addend: 0x0, symName: __ZNSt3__117__compressed_pairINS_12basic_stringIcNS_11char_traitsIcEENS_9allocatorIcEEE5__repES5_E6secondB7v160006Ev, symObjAddr: 0x1544, symBinAddr: 0x100002354, symSize: 0x24 }
  - { offsetInCU: 0xDC61, offset: 0xDC61, size: 0x8, addend: 0x0, symName: __ZNSt3__122__compressed_pair_elemINS_9allocatorIcEELi1ELb1EE5__getB7v160006Ev, symObjAddr: 0x1568, symBinAddr: 0x100002378, symSize: 0x14 }
  - { offsetInCU: 0xDC86, offset: 0xDC86, size: 0x8, addend: 0x0, symName: __ZNSt3__16vectorINS_4pairINS_12basic_stringIcNS_11char_traitsIcEENS_9allocatorIcEEEEiEENS5_IS8_EEEC2B7v160006Ev, symObjAddr: 0x157C, symBinAddr: 0x10000238C, symSize: 0x4C }
  - { offsetInCU: 0xDCB4, offset: 0xDCB4, size: 0x8, addend: 0x0, symName: __ZNSt3__117__compressed_pairIPNS_4pairINS_12basic_stringIcNS_11char_traitsIcEENS_9allocatorIcEEEEiEENS5_IS8_EEEC1B7v160006IDnNS_18__default_init_tagEEEOT_OT0_, symObjAddr: 0x15C8, symBinAddr: 0x1000023D8, symSize: 0x3C }
  - { offsetInCU: 0xDD0B, offset: 0xDD0B, size: 0x8, addend: 0x0, symName: __ZNSt3__117__compressed_pairIPNS_4pairINS_12basic_stringIcNS_11char_traitsIcEENS_9allocatorIcEEEEiEENS5_IS8_EEEC2B7v160006IDnNS_18__default_init_tagEEEOT_OT0_, symObjAddr: 0x1614, symBinAddr: 0x100002424, symSize: 0x40 }
  - { offsetInCU: 0xDD62, offset: 0xDD62, size: 0x8, addend: 0x0, symName: __ZNSt3__122__compressed_pair_elemIPNS_4pairINS_12basic_stringIcNS_11char_traitsIcEENS_9allocatorIcEEEEiEELi0ELb0EEC2B7v160006IDnvEEOT_, symObjAddr: 0x1654, symBinAddr: 0x100002464, symSize: 0x1C }
  - { offsetInCU: 0xDDA3, offset: 0xDDA3, size: 0x8, addend: 0x0, symName: __ZNSt3__122__compressed_pair_elemINS_9allocatorINS_4pairINS_12basic_stringIcNS_11char_traitsIcEENS1_IcEEEEiEEEELi1ELb1EEC2B7v160006ENS_18__default_init_tagE, symObjAddr: 0x1670, symBinAddr: 0x100002480, symSize: 0x2C }
  - { offsetInCU: 0xDDD7, offset: 0xDDD7, size: 0x8, addend: 0x0, symName: __ZNSt3__19allocatorINS_4pairINS_12basic_stringIcNS_11char_traitsIcEENS0_IcEEEEiEEEC2B7v160006Ev, symObjAddr: 0x169C, symBinAddr: 0x1000024AC, symSize: 0x2C }
  - { offsetInCU: 0xDE00, offset: 0xDE00, size: 0x8, addend: 0x0, symName: __ZNSt3__116__non_trivial_ifILb1ENS_9allocatorINS_4pairINS_12basic_stringIcNS_11char_traitsIcEENS1_IcEEEEiEEEEEC2B7v160006Ev, symObjAddr: 0x16C8, symBinAddr: 0x1000024D8, symSize: 0x14 }
  - { offsetInCU: 0xDE29, offset: 0xDE29, size: 0x8, addend: 0x0, symName: __ZNSt3__16vectorINS_4pairINS_12basic_stringIcNS_11char_traitsIcEENS_9allocatorIcEEEEiEENS5_IS8_EEED2B7v160006Ev, symObjAddr: 0x16DC, symBinAddr: 0x1000024EC, symSize: 0x3C }
  - { offsetInCU: 0xDE52, offset: 0xDE52, size: 0x8, addend: 0x0, symName: __ZNSt3__16vectorINS_4pairINS_12basic_stringIcNS_11char_traitsIcEENS_9allocatorIcEEEEiEENS5_IS8_EEE16__destroy_vectorC1ERSA_, symObjAddr: 0x1718, symBinAddr: 0x100002528, symSize: 0x34 }
  - { offsetInCU: 0xDE8A, offset: 0xDE8A, size: 0x8, addend: 0x0, symName: __ZNSt3__16vectorINS_4pairINS_12basic_stringIcNS_11char_traitsIcEENS_9allocatorIcEEEEiEENS5_IS8_EEE16__destroy_vectorclB7v160006Ev, symObjAddr: 0x174C, symBinAddr: 0x10000255C, symSize: 0x9C }
  - { offsetInCU: 0xDEAF, offset: 0xDEAF, size: 0x8, addend: 0x0, symName: __ZNSt3__16vectorINS_4pairINS_12basic_stringIcNS_11char_traitsIcEENS_9allocatorIcEEEEiEENS5_IS8_EEE16__destroy_vectorC2ERSA_, symObjAddr: 0x17E8, symBinAddr: 0x1000025F8, symSize: 0x20 }
  - { offsetInCU: 0xDEE7, offset: 0xDEE7, size: 0x8, addend: 0x0, symName: __ZNKSt3__16vectorINS_4pairINS_12basic_stringIcNS_11char_traitsIcEENS_9allocatorIcEEEEiEENS5_IS8_EEE17__annotate_deleteB7v160006Ev, symObjAddr: 0x1808, symBinAddr: 0x100002618, symSize: 0xB8 }
  - { offsetInCU: 0xDF0C, offset: 0xDF0C, size: 0x8, addend: 0x0, symName: __ZNSt3__16vectorINS_4pairINS_12basic_stringIcNS_11char_traitsIcEENS_9allocatorIcEEEEiEENS5_IS8_EEE7__clearB7v160006Ev, symObjAddr: 0x18D0, symBinAddr: 0x1000026E0, symSize: 0x28 }
  - { offsetInCU: 0xDF31, offset: 0xDF31, size: 0x8, addend: 0x0, symName: __ZNSt3__116allocator_traitsINS_9allocatorINS_4pairINS_12basic_stringIcNS_11char_traitsIcEENS1_IcEEEEiEEEEE10deallocateB7v160006ERS9_PS8_m, symObjAddr: 0x18F8, symBinAddr: 0x100002708, symSize: 0x34 }
  - { offsetInCU: 0xDF73, offset: 0xDF73, size: 0x8, addend: 0x0, symName: __ZNSt3__16vectorINS_4pairINS_12basic_stringIcNS_11char_traitsIcEENS_9allocatorIcEEEEiEENS5_IS8_EEE7__allocB7v160006Ev, symObjAddr: 0x192C, symBinAddr: 0x10000273C, symSize: 0x28 }
  - { offsetInCU: 0xDF98, offset: 0xDF98, size: 0x8, addend: 0x0, symName: __ZNKSt3__16vectorINS_4pairINS_12basic_stringIcNS_11char_traitsIcEENS_9allocatorIcEEEEiEENS5_IS8_EEE8capacityB7v160006Ev, symObjAddr: 0x1954, symBinAddr: 0x100002764, symSize: 0x40 }
  - { offsetInCU: 0xDFBD, offset: 0xDFBD, size: 0x8, addend: 0x0, symName: __ZNKSt3__16vectorINS_4pairINS_12basic_stringIcNS_11char_traitsIcEENS_9allocatorIcEEEEiEENS5_IS8_EEE31__annotate_contiguous_containerB7v160006EPKvSC_SC_SC_, symObjAddr: 0x1994, symBinAddr: 0x1000027A4, symSize: 0x20 }
  - { offsetInCU: 0xE00E, offset: 0xE00E, size: 0x8, addend: 0x0, symName: __ZNKSt3__16vectorINS_4pairINS_12basic_stringIcNS_11char_traitsIcEENS_9allocatorIcEEEEiEENS5_IS8_EEE4dataB7v160006Ev, symObjAddr: 0x19B4, symBinAddr: 0x1000027C4, symSize: 0x28 }
  - { offsetInCU: 0xE033, offset: 0xE033, size: 0x8, addend: 0x0, symName: __ZNSt3__16vectorINS_4pairINS_12basic_stringIcNS_11char_traitsIcEENS_9allocatorIcEEEEiEENS5_IS8_EEE22__base_destruct_at_endB7v160006EPS8_, symObjAddr: 0x19F0, symBinAddr: 0x100002800, symSize: 0xA0 }
  - { offsetInCU: 0xE076, offset: 0xE076, size: 0x8, addend: 0x0, symName: __ZNSt3__116allocator_traitsINS_9allocatorINS_4pairINS_12basic_stringIcNS_11char_traitsIcEENS1_IcEEEEiEEEEE7destroyB7v160006IS8_vEEvRS9_PT_, symObjAddr: 0x1A90, symBinAddr: 0x1000028A0, symSize: 0x2C }
  - { offsetInCU: 0xE0B3, offset: 0xE0B3, size: 0x8, addend: 0x0, symName: __ZNSt3__19allocatorINS_4pairINS_12basic_stringIcNS_11char_traitsIcEENS0_IcEEEEiEEE7destroyB7v160006EPS7_, symObjAddr: 0x1ABC, symBinAddr: 0x1000028CC, symSize: 0x28 }
  - { offsetInCU: 0xE0E6, offset: 0xE0E6, size: 0x8, addend: 0x0, symName: __ZNSt3__19allocatorINS_4pairINS_12basic_stringIcNS_11char_traitsIcEENS0_IcEEEEiEEE10deallocateB7v160006EPS7_m, symObjAddr: 0x1AE4, symBinAddr: 0x1000028F4, symSize: 0x70 }
  - { offsetInCU: 0xE127, offset: 0xE127, size: 0x8, addend: 0x0, symName: __ZNSt3__117__compressed_pairIPNS_4pairINS_12basic_stringIcNS_11char_traitsIcEENS_9allocatorIcEEEEiEENS5_IS8_EEE6secondB7v160006Ev, symObjAddr: 0x1BD0, symBinAddr: 0x1000029E0, symSize: 0x24 }
  - { offsetInCU: 0xE14C, offset: 0xE14C, size: 0x8, addend: 0x0, symName: __ZNSt3__122__compressed_pair_elemINS_9allocatorINS_4pairINS_12basic_stringIcNS_11char_traitsIcEENS1_IcEEEEiEEEELi1ELb1EE5__getB7v160006Ev, symObjAddr: 0x1BF4, symBinAddr: 0x100002A04, symSize: 0x14 }
  - { offsetInCU: 0xE171, offset: 0xE171, size: 0x8, addend: 0x0, symName: __ZNKSt3__16vectorINS_4pairINS_12basic_stringIcNS_11char_traitsIcEENS_9allocatorIcEEEEiEENS5_IS8_EEE9__end_capB7v160006Ev, symObjAddr: 0x1C08, symBinAddr: 0x100002A18, symSize: 0x28 }
  - { offsetInCU: 0xE196, offset: 0xE196, size: 0x8, addend: 0x0, symName: __ZNKSt3__117__compressed_pairIPNS_4pairINS_12basic_stringIcNS_11char_traitsIcEENS_9allocatorIcEEEEiEENS5_IS8_EEE5firstB7v160006Ev, symObjAddr: 0x1C30, symBinAddr: 0x100002A40, symSize: 0x24 }
  - { offsetInCU: 0xE1BB, offset: 0xE1BB, size: 0x8, addend: 0x0, symName: __ZNKSt3__122__compressed_pair_elemIPNS_4pairINS_12basic_stringIcNS_11char_traitsIcEENS_9allocatorIcEEEEiEELi0ELb0EE5__getB7v160006Ev, symObjAddr: 0x1C54, symBinAddr: 0x100002A64, symSize: 0x14 }
  - { offsetInCU: 0xE1E0, offset: 0xE1E0, size: 0x8, addend: 0x0, symName: __ZNSt3__16vectorIiNS_9allocatorIiEEEC2B7v160006Ev, symObjAddr: 0x1C68, symBinAddr: 0x100002A78, symSize: 0x4C }
  - { offsetInCU: 0xE209, offset: 0xE209, size: 0x8, addend: 0x0, symName: __ZNSt3__117__compressed_pairIPiNS_9allocatorIiEEEC1B7v160006IDnNS_18__default_init_tagEEEOT_OT0_, symObjAddr: 0x1CB4, symBinAddr: 0x100002AC4, symSize: 0x3C }
  - { offsetInCU: 0xE260, offset: 0xE260, size: 0x8, addend: 0x0, symName: __ZNSt3__117__compressed_pairIPiNS_9allocatorIiEEEC2B7v160006IDnNS_18__default_init_tagEEEOT_OT0_, symObjAddr: 0x1D00, symBinAddr: 0x100002B10, symSize: 0x40 }
  - { offsetInCU: 0xE2B7, offset: 0xE2B7, size: 0x8, addend: 0x0, symName: __ZNSt3__122__compressed_pair_elemIPiLi0ELb0EEC2B7v160006IDnvEEOT_, symObjAddr: 0x1D40, symBinAddr: 0x100002B50, symSize: 0x1C }
  - { offsetInCU: 0xE2F8, offset: 0xE2F8, size: 0x8, addend: 0x0, symName: __ZNSt3__122__compressed_pair_elemINS_9allocatorIiEELi1ELb1EEC2B7v160006ENS_18__default_init_tagE, symObjAddr: 0x1D5C, symBinAddr: 0x100002B6C, symSize: 0x2C }
  - { offsetInCU: 0xE32C, offset: 0xE32C, size: 0x8, addend: 0x0, symName: __ZNSt3__19allocatorIiEC2B7v160006Ev, symObjAddr: 0x1D88, symBinAddr: 0x100002B98, symSize: 0x2C }
  - { offsetInCU: 0xE355, offset: 0xE355, size: 0x8, addend: 0x0, symName: __ZNSt3__116__non_trivial_ifILb1ENS_9allocatorIiEEEC2B7v160006Ev, symObjAddr: 0x1DB4, symBinAddr: 0x100002BC4, symSize: 0x14 }
  - { offsetInCU: 0xE37E, offset: 0xE37E, size: 0x8, addend: 0x0, symName: __ZNSt3__16vectorIiNS_9allocatorIiEEED2B7v160006Ev, symObjAddr: 0x1DC8, symBinAddr: 0x100002BD8, symSize: 0x3C }
  - { offsetInCU: 0xE3A7, offset: 0xE3A7, size: 0x8, addend: 0x0, symName: __ZNSt3__16vectorIiNS_9allocatorIiEEE16__destroy_vectorC1ERS3_, symObjAddr: 0x1E04, symBinAddr: 0x100002C14, symSize: 0x34 }
  - { offsetInCU: 0xE3DF, offset: 0xE3DF, size: 0x8, addend: 0x0, symName: __ZNSt3__16vectorIiNS_9allocatorIiEEE16__destroy_vectorclB7v160006Ev, symObjAddr: 0x1E38, symBinAddr: 0x100002C48, symSize: 0x9C }
  - { offsetInCU: 0xE404, offset: 0xE404, size: 0x8, addend: 0x0, symName: __ZNSt3__16vectorIiNS_9allocatorIiEEE16__destroy_vectorC2ERS3_, symObjAddr: 0x1ED4, symBinAddr: 0x100002CE4, symSize: 0x20 }
  - { offsetInCU: 0xE43C, offset: 0xE43C, size: 0x8, addend: 0x0, symName: __ZNKSt3__16vectorIiNS_9allocatorIiEEE17__annotate_deleteB7v160006Ev, symObjAddr: 0x1EF4, symBinAddr: 0x100002D04, symSize: 0xB8 }
  - { offsetInCU: 0xE461, offset: 0xE461, size: 0x8, addend: 0x0, symName: __ZNSt3__16vectorIiNS_9allocatorIiEEE7__clearB7v160006Ev, symObjAddr: 0x1FBC, symBinAddr: 0x100002DCC, symSize: 0x28 }
  - { offsetInCU: 0xE486, offset: 0xE486, size: 0x8, addend: 0x0, symName: __ZNSt3__116allocator_traitsINS_9allocatorIiEEE10deallocateB7v160006ERS2_Pim, symObjAddr: 0x1FE4, symBinAddr: 0x100002DF4, symSize: 0x34 }
  - { offsetInCU: 0xE4C8, offset: 0xE4C8, size: 0x8, addend: 0x0, symName: __ZNSt3__16vectorIiNS_9allocatorIiEEE7__allocB7v160006Ev, symObjAddr: 0x2018, symBinAddr: 0x100002E28, symSize: 0x28 }
  - { offsetInCU: 0xE4ED, offset: 0xE4ED, size: 0x8, addend: 0x0, symName: __ZNKSt3__16vectorIiNS_9allocatorIiEEE8capacityB7v160006Ev, symObjAddr: 0x2040, symBinAddr: 0x100002E50, symSize: 0x40 }
  - { offsetInCU: 0xE512, offset: 0xE512, size: 0x8, addend: 0x0, symName: __ZNKSt3__16vectorIiNS_9allocatorIiEEE31__annotate_contiguous_containerB7v160006EPKvS5_S5_S5_, symObjAddr: 0x2080, symBinAddr: 0x100002E90, symSize: 0x20 }
  - { offsetInCU: 0xE563, offset: 0xE563, size: 0x8, addend: 0x0, symName: __ZNKSt3__16vectorIiNS_9allocatorIiEEE4dataB7v160006Ev, symObjAddr: 0x20A0, symBinAddr: 0x100002EB0, symSize: 0x28 }
  - { offsetInCU: 0xE588, offset: 0xE588, size: 0x8, addend: 0x0, symName: __ZNKSt3__16vectorIiNS_9allocatorIiEEE4sizeB7v160006Ev, symObjAddr: 0x20C8, symBinAddr: 0x100002ED8, symSize: 0x28 }
  - { offsetInCU: 0xE5AD, offset: 0xE5AD, size: 0x8, addend: 0x0, symName: __ZNSt3__16vectorIiNS_9allocatorIiEEE22__base_destruct_at_endB7v160006EPi, symObjAddr: 0x2104, symBinAddr: 0x100002F14, symSize: 0xA0 }
  - { offsetInCU: 0xE5F0, offset: 0xE5F0, size: 0x8, addend: 0x0, symName: __ZNSt3__116allocator_traitsINS_9allocatorIiEEE7destroyB7v160006IivEEvRS2_PT_, symObjAddr: 0x21A4, symBinAddr: 0x100002FB4, symSize: 0x2C }
  - { offsetInCU: 0xE62D, offset: 0xE62D, size: 0x8, addend: 0x0, symName: __ZNSt3__19allocatorIiE7destroyB7v160006EPi, symObjAddr: 0x21D0, symBinAddr: 0x100002FE0, symSize: 0x14 }
  - { offsetInCU: 0xE660, offset: 0xE660, size: 0x8, addend: 0x0, symName: __ZNSt3__19allocatorIiE10deallocateB7v160006EPim, symObjAddr: 0x21E4, symBinAddr: 0x100002FF4, symSize: 0x70 }
  - { offsetInCU: 0xE6A1, offset: 0xE6A1, size: 0x8, addend: 0x0, symName: __ZNSt3__117__compressed_pairIPiNS_9allocatorIiEEE6secondB7v160006Ev, symObjAddr: 0x2254, symBinAddr: 0x100003064, symSize: 0x24 }
  - { offsetInCU: 0xE6C6, offset: 0xE6C6, size: 0x8, addend: 0x0, symName: __ZNSt3__122__compressed_pair_elemINS_9allocatorIiEELi1ELb1EE5__getB7v160006Ev, symObjAddr: 0x2278, symBinAddr: 0x100003088, symSize: 0x14 }
  - { offsetInCU: 0xE6EB, offset: 0xE6EB, size: 0x8, addend: 0x0, symName: __ZNKSt3__16vectorIiNS_9allocatorIiEEE9__end_capB7v160006Ev, symObjAddr: 0x228C, symBinAddr: 0x10000309C, symSize: 0x28 }
  - { offsetInCU: 0xE710, offset: 0xE710, size: 0x8, addend: 0x0, symName: __ZNKSt3__117__compressed_pairIPiNS_9allocatorIiEEE5firstB7v160006Ev, symObjAddr: 0x22B4, symBinAddr: 0x1000030C4, symSize: 0x24 }
  - { offsetInCU: 0xE735, offset: 0xE735, size: 0x8, addend: 0x0, symName: __ZNKSt3__122__compressed_pair_elemIPiLi0ELb0EE5__getB7v160006Ev, symObjAddr: 0x22D8, symBinAddr: 0x1000030E8, symSize: 0x14 }
  - { offsetInCU: 0xE759, offset: 0xE759, size: 0x8, addend: 0x0, symName: __ZNKSt3__19basic_iosIcNS_11char_traitsIcEEE5widenB7v160006Ec, symObjAddr: 0x2524, symBinAddr: 0x100003334, symSize: 0x8C }
  - { offsetInCU: 0xE7AD, offset: 0xE7AD, size: 0x8, addend: 0x0, symName: __ZNKSt3__113basic_istreamIcNS_11char_traitsIcEEE6sentrycvbB7v160006Ev, symObjAddr: 0x25B0, symBinAddr: 0x1000033C0, symSize: 0x1C }
  - { offsetInCU: 0xE7D1, offset: 0xE7D1, size: 0x8, addend: 0x0, symName: __ZNSt3__112basic_stringIcNS_11char_traitsIcEENS_9allocatorIcEEE5clearB7v160006Ev, symObjAddr: 0x25CC, symBinAddr: 0x1000033DC, symSize: 0x9C }
  - { offsetInCU: 0xE7F7, offset: 0xE7F7, size: 0x8, addend: 0x0, symName: __ZNKSt3__19basic_iosIcNS_11char_traitsIcEEE5rdbufB7v160006Ev, symObjAddr: 0x2668, symBinAddr: 0x100003478, symSize: 0x24 }
  - { offsetInCU: 0xE81E, offset: 0xE81E, size: 0x8, addend: 0x0, symName: __ZNSt3__115basic_streambufIcNS_11char_traitsIcEEE6sbumpcB7v160006Ev, symObjAddr: 0x268C, symBinAddr: 0x10000349C, symSize: 0x78 }
  - { offsetInCU: 0xE843, offset: 0xE843, size: 0x8, addend: 0x0, symName: __ZNSt3__111char_traitsIcE11eq_int_typeEii, symObjAddr: 0x2704, symBinAddr: 0x100003514, symSize: 0x28 }
  - { offsetInCU: 0xE874, offset: 0xE874, size: 0x8, addend: 0x0, symName: __ZNSt3__111char_traitsIcE12to_char_typeEi, symObjAddr: 0x272C, symBinAddr: 0x10000353C, symSize: 0x18 }
  - { offsetInCU: 0xE897, offset: 0xE897, size: 0x8, addend: 0x0, symName: __ZNSt3__111char_traitsIcE2eqEcc, symObjAddr: 0x2744, symBinAddr: 0x100003554, symSize: 0x28 }
  - { offsetInCU: 0xE8C8, offset: 0xE8C8, size: 0x8, addend: 0x0, symName: __ZNKSt3__112basic_stringIcNS_11char_traitsIcEENS_9allocatorIcEEE4sizeB7v160006Ev, symObjAddr: 0x276C, symBinAddr: 0x10000357C, symSize: 0x54 }
  - { offsetInCU: 0xE8ED, offset: 0xE8ED, size: 0x8, addend: 0x0, symName: __ZNKSt3__112basic_stringIcNS_11char_traitsIcEENS_9allocatorIcEEE8max_sizeB7v160006Ev, symObjAddr: 0x27C0, symBinAddr: 0x1000035D0, symSize: 0xAC }
  - { offsetInCU: 0xE93F, offset: 0xE93F, size: 0x8, addend: 0x0, symName: __ZNSt3__18ios_base18__setstate_nothrowB7v160006Ej, symObjAddr: 0x286C, symBinAddr: 0x10000367C, symSize: 0x64 }
  - { offsetInCU: 0xE973, offset: 0xE973, size: 0x8, addend: 0x0, symName: __ZNKSt3__19basic_iosIcNS_11char_traitsIcEEE10exceptionsB7v160006Ev, symObjAddr: 0x28D0, symBinAddr: 0x1000036E0, symSize: 0x24 }
  - { offsetInCU: 0xE998, offset: 0xE998, size: 0x8, addend: 0x0, symName: __ZNSt3__19basic_iosIcNS_11char_traitsIcEEE8setstateB7v160006Ej, symObjAddr: 0x28F4, symBinAddr: 0x100003704, symSize: 0x2C }
  - { offsetInCU: 0xE9CC, offset: 0xE9CC, size: 0x8, addend: 0x0, symName: __ZNKSt3__112basic_stringIcNS_11char_traitsIcEENS_9allocatorIcEEE9__is_longB7v160006Ev, symObjAddr: 0x2930, symBinAddr: 0x100003740, symSize: 0x74 }
  - { offsetInCU: 0xE9F1, offset: 0xE9F1, size: 0x8, addend: 0x0, symName: __ZNSt3__111char_traitsIcE6assignERcRKc, symObjAddr: 0x29A4, symBinAddr: 0x1000037B4, symSize: 0x24 }
  - { offsetInCU: 0xEA22, offset: 0xEA22, size: 0x8, addend: 0x0, symName: __ZNSt3__112basic_stringIcNS_11char_traitsIcEENS_9allocatorIcEEE18__get_long_pointerB7v160006Ev, symObjAddr: 0x29C8, symBinAddr: 0x1000037D8, symSize: 0x28 }
  - { offsetInCU: 0xEA47, offset: 0xEA47, size: 0x8, addend: 0x0, symName: __ZNSt3__112basic_stringIcNS_11char_traitsIcEENS_9allocatorIcEEE19__get_short_pointerB7v160006Ev, symObjAddr: 0x29F0, symBinAddr: 0x100003800, symSize: 0x28 }
  - { offsetInCU: 0xEA6C, offset: 0xEA6C, size: 0x8, addend: 0x0, symName: __ZNSt3__112basic_stringIcNS_11char_traitsIcEENS_9allocatorIcEEE16__set_short_sizeB7v160006Em, symObjAddr: 0x2A18, symBinAddr: 0x100003828, symSize: 0x78 }
  - { offsetInCU: 0xEAA0, offset: 0xEAA0, size: 0x8, addend: 0x0, symName: __ZNKSt3__117__compressed_pairINS_12basic_stringIcNS_11char_traitsIcEENS_9allocatorIcEEE5__repES5_E5firstB7v160006Ev, symObjAddr: 0x2A90, symBinAddr: 0x1000038A0, symSize: 0x24 }
  - { offsetInCU: 0xEAC5, offset: 0xEAC5, size: 0x8, addend: 0x0, symName: __ZNKSt3__122__compressed_pair_elemINS_12basic_stringIcNS_11char_traitsIcEENS_9allocatorIcEEE5__repELi0ELb0EE5__getB7v160006Ev, symObjAddr: 0x2AB4, symBinAddr: 0x1000038C4, symSize: 0x14 }
  - { offsetInCU: 0xEAEA, offset: 0xEAEA, size: 0x8, addend: 0x0, symName: __ZNSt3__114pointer_traitsIPcE10pointer_toB7v160006ERc, symObjAddr: 0x2AC8, symBinAddr: 0x1000038D8, symSize: 0x14 }
  - { offsetInCU: 0xEB0D, offset: 0xEB0D, size: 0x8, addend: 0x0, symName: __ZNKSt3__18ios_base5rdbufB7v160006Ev, symObjAddr: 0x2ADC, symBinAddr: 0x1000038EC, symSize: 0x18 }
  - { offsetInCU: 0xEB32, offset: 0xEB32, size: 0x8, addend: 0x0, symName: __ZNSt3__111char_traitsIcE11to_int_typeEc, symObjAddr: 0x2AF4, symBinAddr: 0x100003904, symSize: 0x14 }
  - { offsetInCU: 0xEB55, offset: 0xEB55, size: 0x8, addend: 0x0, symName: __ZNKSt3__112basic_stringIcNS_11char_traitsIcEENS_9allocatorIcEEE15__get_long_sizeB7v160006Ev, symObjAddr: 0x2B08, symBinAddr: 0x100003918, symSize: 0x28 }
  - { offsetInCU: 0xEB7A, offset: 0xEB7A, size: 0x8, addend: 0x0, symName: __ZNKSt3__112basic_stringIcNS_11char_traitsIcEENS_9allocatorIcEEE16__get_short_sizeB7v160006Ev, symObjAddr: 0x2B30, symBinAddr: 0x100003940, symSize: 0x34 }
  - { offsetInCU: 0xEB9F, offset: 0xEB9F, size: 0x8, addend: 0x0, symName: __ZNKSt3__112basic_stringIcNS_11char_traitsIcEENS_9allocatorIcEEE7__allocB7v160006Ev, symObjAddr: 0x2B64, symBinAddr: 0x100003974, symSize: 0x24 }
  - { offsetInCU: 0xEBC4, offset: 0xEBC4, size: 0x8, addend: 0x0, symName: __ZNSt3__114numeric_limitsImE3maxB7v160006Ev, symObjAddr: 0x2B88, symBinAddr: 0x100003998, symSize: 0x14 }
  - { offsetInCU: 0xEBD8, offset: 0xEBD8, size: 0x8, addend: 0x0, symName: __ZNKSt3__117__compressed_pairINS_12basic_stringIcNS_11char_traitsIcEENS_9allocatorIcEEE5__repES5_E6secondB7v160006Ev, symObjAddr: 0x2B9C, symBinAddr: 0x1000039AC, symSize: 0x24 }
  - { offsetInCU: 0xEBFD, offset: 0xEBFD, size: 0x8, addend: 0x0, symName: __ZNKSt3__122__compressed_pair_elemINS_9allocatorIcEELi1ELb1EE5__getB7v160006Ev, symObjAddr: 0x2BC0, symBinAddr: 0x1000039D0, symSize: 0x14 }
  - { offsetInCU: 0xEC22, offset: 0xEC22, size: 0x8, addend: 0x0, symName: __ZNSt3__123__libcpp_numeric_limitsImLb1EE3maxB7v160006Ev, symObjAddr: 0x2BD4, symBinAddr: 0x1000039E4, symSize: 0x8 }
  - { offsetInCU: 0xEC36, offset: 0xEC36, size: 0x8, addend: 0x0, symName: __ZNKSt3__18ios_base10exceptionsB7v160006Ev, symObjAddr: 0x2BDC, symBinAddr: 0x1000039EC, symSize: 0x18 }
  - { offsetInCU: 0xEC5C, offset: 0xEC5C, size: 0x8, addend: 0x0, symName: __ZNSt3__18ios_base8setstateB7v160006Ej, symObjAddr: 0x2BF4, symBinAddr: 0x100003A04, symSize: 0x34 }
  - { offsetInCU: 0xECBF, offset: 0xECBF, size: 0x8, addend: 0x0, symName: __ZNKSt3__15ctypeIcE5widenB7v160006Ec, symObjAddr: 0x2C54, symBinAddr: 0x100003A64, symSize: 0x38 }
  - { offsetInCU: 0xECF3, offset: 0xECF3, size: 0x8, addend: 0x0, symName: __ZNSt3__19basic_iosIcNS_11char_traitsIcEEEC2B7v160006Ev, symObjAddr: 0x2C8C, symBinAddr: 0x100003A9C, symSize: 0x44 }
  - { offsetInCU: 0xED1C, offset: 0xED1C, size: 0x8, addend: 0x0, symName: __ZNSt3__114basic_iostreamIcNS_11char_traitsIcEEEC2B7v160006EPNS_15basic_streambufIcS2_EE, symObjAddr: 0x2CD0, symBinAddr: 0x100003AE0, symSize: 0xB4 }
  - { offsetInCU: 0xED60, offset: 0xED60, size: 0x8, addend: 0x0, symName: __ZNSt3__115basic_stringbufIcNS_11char_traitsIcEENS_9allocatorIcEEEC1B7v160006ERKNS_12basic_stringIcS2_S4_EEj, symObjAddr: 0x2D84, symBinAddr: 0x100003B94, symSize: 0x3C }
  - { offsetInCU: 0xEDA5, offset: 0xEDA5, size: 0x8, addend: 0x0, symName: __ZNSt3__18ios_baseC2B7v160006Ev, symObjAddr: 0x2DC0, symBinAddr: 0x100003BD0, symSize: 0x24 }
  - { offsetInCU: 0xEDCE, offset: 0xEDCE, size: 0x8, addend: 0x0, symName: __ZNSt3__113basic_istreamIcNS_11char_traitsIcEEEC2B7v160006EPNS_15basic_streambufIcS2_EE, symObjAddr: 0x2DE4, symBinAddr: 0x100003BF4, symSize: 0x64 }
  - { offsetInCU: 0xEE11, offset: 0xEE11, size: 0x8, addend: 0x0, symName: __ZNSt3__113basic_ostreamIcNS_11char_traitsIcEEEC2B7v160006Ev, symObjAddr: 0x2E48, symBinAddr: 0x100003C58, symSize: 0x34 }
  - { offsetInCU: 0xEE45, offset: 0xEE45, size: 0x8, addend: 0x0, symName: __ZNSt3__19basic_iosIcNS_11char_traitsIcEEE4initB7v160006EPNS_15basic_streambufIcS2_EE, symObjAddr: 0x2E7C, symBinAddr: 0x100003C8C, symSize: 0x44 }
  - { offsetInCU: 0xEE7B, offset: 0xEE7B, size: 0x8, addend: 0x0, symName: __ZNSt3__115basic_stringbufIcNS_11char_traitsIcEENS_9allocatorIcEEEC2B7v160006ERKNS_12basic_stringIcS2_S4_EEj, symObjAddr: 0x2EC0, symBinAddr: 0x100003CD0, symSize: 0xD8 }
  - { offsetInCU: 0xEEC0, offset: 0xEEC0, size: 0x8, addend: 0x0, symName: __ZNKSt3__112basic_stringIcNS_11char_traitsIcEENS_9allocatorIcEEE13get_allocatorB7v160006Ev, symObjAddr: 0x2F98, symBinAddr: 0x100003DA8, symSize: 0x24 }
  - { offsetInCU: 0xEEE5, offset: 0xEEE5, size: 0x8, addend: 0x0, symName: __ZNSt3__112basic_stringIcNS_11char_traitsIcEENS_9allocatorIcEEEC1B7v160006ERKS4_, symObjAddr: 0x2FBC, symBinAddr: 0x100003DCC, symSize: 0x34 }
  - { offsetInCU: 0xEF1D, offset: 0xEF1D, size: 0x8, addend: 0x0, symName: __ZNSt3__112basic_stringIcNS_11char_traitsIcEENS_9allocatorIcEEEC2B7v160006ERKS4_, symObjAddr: 0x2FF0, symBinAddr: 0x100003E00, symSize: 0x48 }
  - { offsetInCU: 0xEF55, offset: 0xEF55, size: 0x8, addend: 0x0, symName: __ZNSt3__117__compressed_pairINS_12basic_stringIcNS_11char_traitsIcEENS_9allocatorIcEEE5__repES5_EC1B7v160006INS_18__default_init_tagERKS5_EEOT_OT0_, symObjAddr: 0x3038, symBinAddr: 0x100003E48, symSize: 0x3C }
  - { offsetInCU: 0xEFAC, offset: 0xEFAC, size: 0x8, addend: 0x0, symName: __ZNSt3__117__compressed_pairINS_12basic_stringIcNS_11char_traitsIcEENS_9allocatorIcEEE5__repES5_EC2B7v160006INS_18__default_init_tagERKS5_EEOT_OT0_, symObjAddr: 0x3074, symBinAddr: 0x100003E84, symSize: 0x40 }
  - { offsetInCU: 0xF003, offset: 0xF003, size: 0x8, addend: 0x0, symName: __ZNSt3__122__compressed_pair_elemINS_9allocatorIcEELi1ELb1EEC2B7v160006IRKS2_vEEOT_, symObjAddr: 0x30B4, symBinAddr: 0x100003EC4, symSize: 0x18 }
  - { offsetInCU: 0xF044, offset: 0xF044, size: 0x8, addend: 0x0, symName: __ZNKSt3__18ios_base5widthB7v160006Ev, symObjAddr: 0x30CC, symBinAddr: 0x100003EDC, symSize: 0x18 }
  - { offsetInCU: 0xF06B, offset: 0xF06B, size: 0x8, addend: 0x0, symName: __ZNSt3__114numeric_limitsIlE3maxB7v160006Ev, symObjAddr: 0x30E4, symBinAddr: 0x100003EF4, symSize: 0x14 }
  - { offsetInCU: 0xF07F, offset: 0xF07F, size: 0x8, addend: 0x0, symName: __ZNSt3__115basic_streambufIcNS_11char_traitsIcEEE5sgetcB7v160006Ev, symObjAddr: 0x30F8, symBinAddr: 0x100003F08, symSize: 0x70 }
  - { offsetInCU: 0xF0A4, offset: 0xF0A4, size: 0x8, addend: 0x0, symName: __ZNKSt3__15ctypeIcE2isB7v160006Ejc, symObjAddr: 0x3168, symBinAddr: 0x100003F78, symSize: 0x7C }
  - { offsetInCU: 0xF0E7, offset: 0xF0E7, size: 0x8, addend: 0x0, symName: __ZNSt3__18ios_base5widthB7v160006El, symObjAddr: 0x31E4, symBinAddr: 0x100003FF4, symSize: 0x2C }
  - { offsetInCU: 0xF12C, offset: 0xF12C, size: 0x8, addend: 0x0, symName: __ZNSt3__123__libcpp_numeric_limitsIlLb1EE3maxB7v160006Ev, symObjAddr: 0x3210, symBinAddr: 0x100004020, symSize: 0x8 }
  - { offsetInCU: 0xF13F, offset: 0xF13F, size: 0x8, addend: 0x0, symName: __Z7isasciii, symObjAddr: 0x3218, symBinAddr: 0x100004028, symSize: 0x24 }
  - { offsetInCU: 0xF16C, offset: 0xF16C, size: 0x8, addend: 0x0, symName: __ZNSt3__16vectorIiNS_9allocatorIiEEE9__end_capB7v160006Ev, symObjAddr: 0x323C, symBinAddr: 0x10000404C, symSize: 0x28 }
  - { offsetInCU: 0xF191, offset: 0xF191, size: 0x8, addend: 0x0, symName: __ZNSt3__16vectorIiNS_9allocatorIiEEE22__construct_one_at_endB7v160006IJRKiEEEvDpOT_, symObjAddr: 0x3264, symBinAddr: 0x100004074, symSize: 0x98 }
  - { offsetInCU: 0xF1DE, offset: 0xF1DE, size: 0x8, addend: 0x0, symName: __ZNSt3__16vectorIiNS_9allocatorIiEEE21__push_back_slow_pathIRKiEEvOT_, symObjAddr: 0x32FC, symBinAddr: 0x10000410C, symSize: 0xE0 }
  - { offsetInCU: 0xF23B, offset: 0xF23B, size: 0x8, addend: 0x0, symName: __ZNSt3__117__compressed_pairIPiNS_9allocatorIiEEE5firstB7v160006Ev, symObjAddr: 0x33DC, symBinAddr: 0x1000041EC, symSize: 0x24 }
  - { offsetInCU: 0xF260, offset: 0xF260, size: 0x8, addend: 0x0, symName: __ZNSt3__122__compressed_pair_elemIPiLi0ELb0EE5__getB7v160006Ev, symObjAddr: 0x3400, symBinAddr: 0x100004210, symSize: 0x14 }
  - { offsetInCU: 0xF29E, offset: 0xF29E, size: 0x8, addend: 0x0, symName: __ZNSt3__16vectorIiNS_9allocatorIiEEE21_ConstructTransactionC1B7v160006ERS3_m, symObjAddr: 0x3414, symBinAddr: 0x100004224, symSize: 0x3C }
  - { offsetInCU: 0xF2E5, offset: 0xF2E5, size: 0x8, addend: 0x0, symName: __ZNSt3__116allocator_traitsINS_9allocatorIiEEE9constructB7v160006IiJRKiEvEEvRS2_PT_DpOT0_, symObjAddr: 0x3450, symBinAddr: 0x100004260, symSize: 0x34 }
  - { offsetInCU: 0xF33C, offset: 0xF33C, size: 0x8, addend: 0x0, symName: __ZNSt3__16vectorIiNS_9allocatorIiEEE21_ConstructTransactionD1B7v160006Ev, symObjAddr: 0x3484, symBinAddr: 0x100004294, symSize: 0x2C }
  - { offsetInCU: 0xF365, offset: 0xF365, size: 0x8, addend: 0x0, symName: __ZNSt3__16vectorIiNS_9allocatorIiEEE21_ConstructTransactionC2B7v160006ERS3_m, symObjAddr: 0x34B0, symBinAddr: 0x1000042C0, symSize: 0x44 }
  - { offsetInCU: 0xF3AC, offset: 0xF3AC, size: 0x8, addend: 0x0, symName: __ZNSt3__19allocatorIiE9constructB7v160006IiJRKiEEEvPT_DpOT0_, symObjAddr: 0x34F4, symBinAddr: 0x100004304, symSize: 0x28 }
  - { offsetInCU: 0xF401, offset: 0xF401, size: 0x8, addend: 0x0, symName: __ZNSt3__16vectorIiNS_9allocatorIiEEE21_ConstructTransactionD2B7v160006Ev, symObjAddr: 0x351C, symBinAddr: 0x10000432C, symSize: 0x20 }
  - { offsetInCU: 0xF429, offset: 0xF429, size: 0x8, addend: 0x0, symName: __ZNKSt3__16vectorIiNS_9allocatorIiEEE11__recommendB7v160006Em, symObjAddr: 0x353C, symBinAddr: 0x10000434C, symSize: 0xB4 }
  - { offsetInCU: 0xF47D, offset: 0xF47D, size: 0x8, addend: 0x0, symName: __ZNSt3__114__split_bufferIiRNS_9allocatorIiEEEC1EmmS3_, symObjAddr: 0x35F0, symBinAddr: 0x100004400, symSize: 0x44 }
  - { offsetInCU: 0xF4D2, offset: 0xF4D2, size: 0x8, addend: 0x0, symName: __ZNSt3__114__split_bufferIiRNS_9allocatorIiEEED1Ev, symObjAddr: 0x374C, symBinAddr: 0x10000455C, symSize: 0x2C }
  - { offsetInCU: 0xF4FC, offset: 0xF4FC, size: 0x8, addend: 0x0, symName: __ZNKSt3__16vectorIiNS_9allocatorIiEEE8max_sizeEv, symObjAddr: 0x3778, symBinAddr: 0x100004588, symSize: 0x74 }
  - { offsetInCU: 0xF523, offset: 0xF523, size: 0x8, addend: 0x0, symName: __ZNKSt3__16vectorIiNS_9allocatorIiEEE20__throw_length_errorB7v160006Ev, symObjAddr: 0x37EC, symBinAddr: 0x1000045FC, symSize: 0x1C }
  - { offsetInCU: 0xF552, offset: 0xF552, size: 0x8, addend: 0x0, symName: __ZNSt3__116allocator_traitsINS_9allocatorIiEEE8max_sizeB7v160006IS2_vEEmRKS2_, symObjAddr: 0x3860, symBinAddr: 0x100004670, symSize: 0x24 }
  - { offsetInCU: 0xF580, offset: 0xF580, size: 0x8, addend: 0x0, symName: __ZNKSt3__16vectorIiNS_9allocatorIiEEE7__allocB7v160006Ev, symObjAddr: 0x3884, symBinAddr: 0x100004694, symSize: 0x28 }
  - { offsetInCU: 0xF5B9, offset: 0xF5B9, size: 0x8, addend: 0x0, symName: __ZNKSt3__16__lessImmEclB7v160006ERKmS3_, symObjAddr: 0x3900, symBinAddr: 0x100004710, symSize: 0x34 }
  - { offsetInCU: 0xF5FA, offset: 0xF5FA, size: 0x8, addend: 0x0, symName: __ZNKSt3__19allocatorIiE8max_sizeB7v160006Ev, symObjAddr: 0x3934, symBinAddr: 0x100004744, symSize: 0x14 }
  - { offsetInCU: 0xF61F, offset: 0xF61F, size: 0x8, addend: 0x0, symName: __ZNKSt3__117__compressed_pairIPiNS_9allocatorIiEEE6secondB7v160006Ev, symObjAddr: 0x3948, symBinAddr: 0x100004758, symSize: 0x24 }
  - { offsetInCU: 0xF644, offset: 0xF644, size: 0x8, addend: 0x0, symName: __ZNKSt3__122__compressed_pair_elemINS_9allocatorIiEELi1ELb1EE5__getB7v160006Ev, symObjAddr: 0x396C, symBinAddr: 0x10000477C, symSize: 0x14 }
  - { offsetInCU: 0xF669, offset: 0xF669, size: 0x8, addend: 0x0, symName: __ZNSt12length_errorC1B7v160006EPKc, symObjAddr: 0x39E4, symBinAddr: 0x1000047F4, symSize: 0x34 }
  - { offsetInCU: 0xF6A0, offset: 0xF6A0, size: 0x8, addend: 0x0, symName: __ZNSt12length_errorC2B7v160006EPKc, symObjAddr: 0x3A18, symBinAddr: 0x100004828, symSize: 0x4C }
  - { offsetInCU: 0xF6D7, offset: 0xF6D7, size: 0x8, addend: 0x0, symName: __ZNSt3__114__split_bufferIiRNS_9allocatorIiEEEC2EmmS3_, symObjAddr: 0x3AB8, symBinAddr: 0x1000048C8, symSize: 0xD4 }
  - { offsetInCU: 0xF74A, offset: 0xF74A, size: 0x8, addend: 0x0, symName: __ZNSt3__117__compressed_pairIPiRNS_9allocatorIiEEEC1B7v160006IDnS4_EEOT_OT0_, symObjAddr: 0x3B8C, symBinAddr: 0x10000499C, symSize: 0x3C }
  - { offsetInCU: 0xF7A1, offset: 0xF7A1, size: 0x8, addend: 0x0, symName: __ZNSt3__114__split_bufferIiRNS_9allocatorIiEEE7__allocB7v160006Ev, symObjAddr: 0x3C08, symBinAddr: 0x100004A18, symSize: 0x28 }
  - { offsetInCU: 0xF7C6, offset: 0xF7C6, size: 0x8, addend: 0x0, symName: __ZNSt3__114__split_bufferIiRNS_9allocatorIiEEE9__end_capB7v160006Ev, symObjAddr: 0x3C30, symBinAddr: 0x100004A40, symSize: 0x28 }
  - { offsetInCU: 0xF7EB, offset: 0xF7EB, size: 0x8, addend: 0x0, symName: __ZNSt3__117__compressed_pairIPiRNS_9allocatorIiEEEC2B7v160006IDnS4_EEOT_OT0_, symObjAddr: 0x3C58, symBinAddr: 0x100004A68, symSize: 0x48 }
  - { offsetInCU: 0xF842, offset: 0xF842, size: 0x8, addend: 0x0, symName: __ZNSt3__122__compressed_pair_elemIRNS_9allocatorIiEELi1ELb0EEC2B7v160006IS3_vEEOT_, symObjAddr: 0x3CA0, symBinAddr: 0x100004AB0, symSize: 0x20 }
  - { offsetInCU: 0xF883, offset: 0xF883, size: 0x8, addend: 0x0, symName: __ZNSt3__19allocatorIiE8allocateB7v160006Em, symObjAddr: 0x3CC0, symBinAddr: 0x100004AD0, symSize: 0x84 }
  - { offsetInCU: 0xF8B6, offset: 0xF8B6, size: 0x8, addend: 0x0, symName: __ZNSt3__117__compressed_pairIPiRNS_9allocatorIiEEE6secondB7v160006Ev, symObjAddr: 0x3D44, symBinAddr: 0x100004B54, symSize: 0x28 }
  - { offsetInCU: 0xF8DB, offset: 0xF8DB, size: 0x8, addend: 0x0, symName: __ZNSt3__122__compressed_pair_elemIRNS_9allocatorIiEELi1ELb0EE5__getB7v160006Ev, symObjAddr: 0x3D6C, symBinAddr: 0x100004B7C, symSize: 0x18 }
  - { offsetInCU: 0xF900, offset: 0xF900, size: 0x8, addend: 0x0, symName: __ZNSt3__117__compressed_pairIPiRNS_9allocatorIiEEE5firstB7v160006Ev, symObjAddr: 0x3D84, symBinAddr: 0x100004B94, symSize: 0x24 }
  - { offsetInCU: 0xF925, offset: 0xF925, size: 0x8, addend: 0x0, symName: __ZNSt3__116reverse_iteratorIPiEC1B7v160006ES1_, symObjAddr: 0x3E90, symBinAddr: 0x100004CA0, symSize: 0x34 }
  - { offsetInCU: 0xF95C, offset: 0xF95C, size: 0x8, addend: 0x0, symName: __ZNKSt3__116reverse_iteratorIPiE4baseB7v160006Ev, symObjAddr: 0x3EC4, symBinAddr: 0x100004CD4, symSize: 0x18 }
  - { offsetInCU: 0xF981, offset: 0xF981, size: 0x8, addend: 0x0, symName: __ZNKSt3__16vectorIiNS_9allocatorIiEEE14__annotate_newB7v160006Em, symObjAddr: 0x3F18, symBinAddr: 0x100004D28, symSize: 0xAC }
  - { offsetInCU: 0xF9B5, offset: 0xF9B5, size: 0x8, addend: 0x0, symName: __ZNKSt3__116reverse_iteratorIPiEdeB7v160006Ev, symObjAddr: 0x406C, symBinAddr: 0x100004E7C, symSize: 0x28 }
  - { offsetInCU: 0xF9E8, offset: 0xF9E8, size: 0x8, addend: 0x0, symName: __ZNSt3__116reverse_iteratorIPiEppB7v160006Ev, symObjAddr: 0x4094, symBinAddr: 0x100004EA4, symSize: 0x20 }
  - { offsetInCU: 0xFA12, offset: 0xFA12, size: 0x8, addend: 0x0, symName: __ZNSt3__119__to_address_helperINS_16reverse_iteratorIPiEEvE6__callB7v160006ERKS3_, symObjAddr: 0x412C, symBinAddr: 0x100004F3C, symSize: 0x4C }
  - { offsetInCU: 0xFA35, offset: 0xFA35, size: 0x8, addend: 0x0, symName: __ZNKSt3__116reverse_iteratorIPiEptB7v160006Ev, symObjAddr: 0x4178, symBinAddr: 0x100004F88, symSize: 0x24 }
  - { offsetInCU: 0xFA7D, offset: 0xFA7D, size: 0x8, addend: 0x0, symName: __ZNKSt3__111__move_loopINS_17_ClassicAlgPolicyEEclB7v160006INS_16reverse_iteratorIPiEES6_S6_EENS_4pairIT_T1_EES8_T0_S9_, symObjAddr: 0x442C, symBinAddr: 0x10000523C, symSize: 0xA0 }
  - { offsetInCU: 0xFAEC, offset: 0xFAEC, size: 0x8, addend: 0x0, symName: __ZNSt3__18_IterOpsINS_17_ClassicAlgPolicyEE11__iter_moveB7v160006IRNS_16reverse_iteratorIPiEEEENS_9enable_ifIXsr12is_referenceIDTdeclsr3stdE7declvalIRT_EEEEE5valueEDTclsr3stdE4movedeclsr3stdE7declvalISA_EEEEE4typeEOS9_, symObjAddr: 0x462C, symBinAddr: 0x10000543C, symSize: 0x28 }
  - { offsetInCU: 0xFB18, offset: 0xFB18, size: 0x8, addend: 0x0, symName: __ZNSt3__18_IterOpsINS_17_ClassicAlgPolicyEE25__validate_iter_referenceB7v160006IRNS_16reverse_iteratorIPiEEEEvv, symObjAddr: 0x4654, symBinAddr: 0x100005464, symSize: 0x4 }
  - { offsetInCU: 0xFB36, offset: 0xFB36, size: 0x8, addend: 0x0, symName: __ZNSt3__118__unwrap_iter_implINS_16reverse_iteratorIPiEELb0EE8__unwrapB7v160006ES3_, symObjAddr: 0x4658, symBinAddr: 0x100005468, symSize: 0x24 }
  - { offsetInCU: 0xFB59, offset: 0xFB59, size: 0x8, addend: 0x0, symName: __ZNSt3__14pairINS_16reverse_iteratorIPiEES3_EC1B7v160006ERKS3_S6_, symObjAddr: 0x467C, symBinAddr: 0x10000548C, symSize: 0x3C }
  - { offsetInCU: 0xFB9E, offset: 0xFB9E, size: 0x8, addend: 0x0, symName: __ZNSt3__14pairINS_16reverse_iteratorIPiEES3_EC2B7v160006ERKS3_S6_, symObjAddr: 0x46B8, symBinAddr: 0x1000054C8, symSize: 0x34 }
  - { offsetInCU: 0xFBE3, offset: 0xFBE3, size: 0x8, addend: 0x0, symName: __ZNSt3__118__unwrap_iter_implINS_16reverse_iteratorIPiEELb0EE8__rewrapB7v160006ES3_S3_, symObjAddr: 0x46EC, symBinAddr: 0x1000054FC, symSize: 0x2C }
  - { offsetInCU: 0xFC11, offset: 0xFC11, size: 0x8, addend: 0x0, symName: __ZNSt3__116reverse_iteratorIPiEC2B7v160006ES1_, symObjAddr: 0x4718, symBinAddr: 0x100005528, symSize: 0x28 }
  - { offsetInCU: 0xFC48, offset: 0xFC48, size: 0x8, addend: 0x0, symName: __ZNSt3__114__split_bufferIiRNS_9allocatorIiEEED2Ev, symObjAddr: 0x4740, symBinAddr: 0x100005550, symSize: 0x80 }
  - { offsetInCU: 0xFC73, offset: 0xFC73, size: 0x8, addend: 0x0, symName: __ZNSt3__114__split_bufferIiRNS_9allocatorIiEEE5clearB7v160006Ev, symObjAddr: 0x47C0, symBinAddr: 0x1000055D0, symSize: 0x28 }
  - { offsetInCU: 0xFC98, offset: 0xFC98, size: 0x8, addend: 0x0, symName: __ZNKSt3__114__split_bufferIiRNS_9allocatorIiEEE8capacityB7v160006Ev, symObjAddr: 0x47E8, symBinAddr: 0x1000055F8, symSize: 0x40 }
  - { offsetInCU: 0xFCBD, offset: 0xFCBD, size: 0x8, addend: 0x0, symName: __ZNSt3__114__split_bufferIiRNS_9allocatorIiEEE17__destruct_at_endB7v160006EPi, symObjAddr: 0x4828, symBinAddr: 0x100005638, symSize: 0x2C }
  - { offsetInCU: 0xFCEF, offset: 0xFCEF, size: 0x8, addend: 0x0, symName: __ZNSt3__114__split_bufferIiRNS_9allocatorIiEEE17__destruct_at_endB7v160006EPiNS_17integral_constantIbLb0EEE, symObjAddr: 0x4854, symBinAddr: 0x100005664, symSize: 0x94 }
  - { offsetInCU: 0xFD2F, offset: 0xFD2F, size: 0x8, addend: 0x0, symName: __ZNKSt3__114__split_bufferIiRNS_9allocatorIiEEE9__end_capB7v160006Ev, symObjAddr: 0x48E8, symBinAddr: 0x1000056F8, symSize: 0x28 }
  - { offsetInCU: 0xFD54, offset: 0xFD54, size: 0x8, addend: 0x0, symName: __ZNKSt3__117__compressed_pairIPiRNS_9allocatorIiEEE5firstB7v160006Ev, symObjAddr: 0x4910, symBinAddr: 0x100005720, symSize: 0x24 }
  - { offsetInCU: 0xFD79, offset: 0xFD79, size: 0x8, addend: 0x0, symName: __ZNKSt3__16vectorIiNS_9allocatorIiEEE17__annotate_shrinkB7v160006Em, symObjAddr: 0x4934, symBinAddr: 0x100005744, symSize: 0xB4 }
  - { offsetInCU: 0xFDAD, offset: 0xFDAD, size: 0x8, addend: 0x0, symName: __ZNSt3__14pairINS_12basic_stringIcNS_11char_traitsIcEENS_9allocatorIcEEEEiEC1B7v160006ERKS6_RKi, symObjAddr: 0x49E8, symBinAddr: 0x1000057F8, symSize: 0x3C }
  - { offsetInCU: 0xFDF2, offset: 0xFDF2, size: 0x8, addend: 0x0, symName: __ZNSt3__14pairINS_12basic_stringIcNS_11char_traitsIcEENS_9allocatorIcEEEEiEC2B7v160006ERKS6_RKi, symObjAddr: 0x4A24, symBinAddr: 0x100005834, symSize: 0x44 }
  - { offsetInCU: 0xFE37, offset: 0xFE37, size: 0x8, addend: 0x0, symName: __ZNSt3__16vectorINS_4pairINS_12basic_stringIcNS_11char_traitsIcEENS_9allocatorIcEEEEiEENS5_IS8_EEE9__end_capB7v160006Ev, symObjAddr: 0x4A68, symBinAddr: 0x100005878, symSize: 0x28 }
  - { offsetInCU: 0xFE5C, offset: 0xFE5C, size: 0x8, addend: 0x0, symName: __ZNSt3__16vectorINS_4pairINS_12basic_stringIcNS_11char_traitsIcEENS_9allocatorIcEEEEiEENS5_IS8_EEE22__construct_one_at_endB7v160006IJRKS8_EEEvDpOT_, symObjAddr: 0x4A90, symBinAddr: 0x1000058A0, symSize: 0x98 }
  - { offsetInCU: 0xFEA9, offset: 0xFEA9, size: 0x8, addend: 0x0, symName: __ZNSt3__16vectorINS_4pairINS_12basic_stringIcNS_11char_traitsIcEENS_9allocatorIcEEEEiEENS5_IS8_EEE21__push_back_slow_pathIRKS8_EEvOT_, symObjAddr: 0x4B28, symBinAddr: 0x100005938, symSize: 0xE0 }
  - { offsetInCU: 0xFF06, offset: 0xFF06, size: 0x8, addend: 0x0, symName: __ZNSt3__117__compressed_pairIPNS_4pairINS_12basic_stringIcNS_11char_traitsIcEENS_9allocatorIcEEEEiEENS5_IS8_EEE5firstB7v160006Ev, symObjAddr: 0x4C08, symBinAddr: 0x100005A18, symSize: 0x24 }
  - { offsetInCU: 0xFF2B, offset: 0xFF2B, size: 0x8, addend: 0x0, symName: __ZNSt3__122__compressed_pair_elemIPNS_4pairINS_12basic_stringIcNS_11char_traitsIcEENS_9allocatorIcEEEEiEELi0ELb0EE5__getB7v160006Ev, symObjAddr: 0x4C2C, symBinAddr: 0x100005A3C, symSize: 0x14 }
  - { offsetInCU: 0xFF69, offset: 0xFF69, size: 0x8, addend: 0x0, symName: __ZNSt3__16vectorINS_4pairINS_12basic_stringIcNS_11char_traitsIcEENS_9allocatorIcEEEEiEENS5_IS8_EEE21_ConstructTransactionC1B7v160006ERSA_m, symObjAddr: 0x4C40, symBinAddr: 0x100005A50, symSize: 0x3C }
  - { offsetInCU: 0xFFB0, offset: 0xFFB0, size: 0x8, addend: 0x0, symName: __ZNSt3__116allocator_traitsINS_9allocatorINS_4pairINS_12basic_stringIcNS_11char_traitsIcEENS1_IcEEEEiEEEEE9constructB7v160006IS8_JRKS8_EvEEvRS9_PT_DpOT0_, symObjAddr: 0x4C7C, symBinAddr: 0x100005A8C, symSize: 0x34 }
  - { offsetInCU: 0x10007, offset: 0x10007, size: 0x8, addend: 0x0, symName: __ZNSt3__16vectorINS_4pairINS_12basic_stringIcNS_11char_traitsIcEENS_9allocatorIcEEEEiEENS5_IS8_EEE21_ConstructTransactionD1B7v160006Ev, symObjAddr: 0x4CB0, symBinAddr: 0x100005AC0, symSize: 0x2C }
  - { offsetInCU: 0x10030, offset: 0x10030, size: 0x8, addend: 0x0, symName: __ZNSt3__16vectorINS_4pairINS_12basic_stringIcNS_11char_traitsIcEENS_9allocatorIcEEEEiEENS5_IS8_EEE21_ConstructTransactionC2B7v160006ERSA_m, symObjAddr: 0x4CDC, symBinAddr: 0x100005AEC, symSize: 0x44 }
  - { offsetInCU: 0x10077, offset: 0x10077, size: 0x8, addend: 0x0, symName: __ZNSt3__19allocatorINS_4pairINS_12basic_stringIcNS_11char_traitsIcEENS0_IcEEEEiEEE9constructB7v160006IS7_JRKS7_EEEvPT_DpOT0_, symObjAddr: 0x4D20, symBinAddr: 0x100005B30, symSize: 0x30 }
  - { offsetInCU: 0x100CC, offset: 0x100CC, size: 0x8, addend: 0x0, symName: __ZNSt3__14pairINS_12basic_stringIcNS_11char_traitsIcEENS_9allocatorIcEEEEiEC1ERKS7_, symObjAddr: 0x4D50, symBinAddr: 0x100005B60, symSize: 0x34 }
  - { offsetInCU: 0x10100, offset: 0x10100, size: 0x8, addend: 0x0, symName: __ZNSt3__14pairINS_12basic_stringIcNS_11char_traitsIcEENS_9allocatorIcEEEEiEC2ERKS7_, symObjAddr: 0x4D84, symBinAddr: 0x100005B94, symSize: 0x40 }
  - { offsetInCU: 0x10134, offset: 0x10134, size: 0x8, addend: 0x0, symName: __ZNSt3__16vectorINS_4pairINS_12basic_stringIcNS_11char_traitsIcEENS_9allocatorIcEEEEiEENS5_IS8_EEE21_ConstructTransactionD2B7v160006Ev, symObjAddr: 0x4DC4, symBinAddr: 0x100005BD4, symSize: 0x20 }
  - { offsetInCU: 0x1015C, offset: 0x1015C, size: 0x8, addend: 0x0, symName: __ZNKSt3__16vectorINS_4pairINS_12basic_stringIcNS_11char_traitsIcEENS_9allocatorIcEEEEiEENS5_IS8_EEE11__recommendB7v160006Em, symObjAddr: 0x4DE4, symBinAddr: 0x100005BF4, symSize: 0xB4 }
  - { offsetInCU: 0x101B0, offset: 0x101B0, size: 0x8, addend: 0x0, symName: __ZNSt3__114__split_bufferINS_4pairINS_12basic_stringIcNS_11char_traitsIcEENS_9allocatorIcEEEEiEERNS5_IS8_EEEC1EmmSA_, symObjAddr: 0x4E98, symBinAddr: 0x100005CA8, symSize: 0x44 }
  - { offsetInCU: 0x10205, offset: 0x10205, size: 0x8, addend: 0x0, symName: __ZNSt3__114__split_bufferINS_4pairINS_12basic_stringIcNS_11char_traitsIcEENS_9allocatorIcEEEEiEERNS5_IS8_EEED1Ev, symObjAddr: 0x4FF4, symBinAddr: 0x100005E04, symSize: 0x2C }
  - { offsetInCU: 0x1022F, offset: 0x1022F, size: 0x8, addend: 0x0, symName: __ZNKSt3__16vectorINS_4pairINS_12basic_stringIcNS_11char_traitsIcEENS_9allocatorIcEEEEiEENS5_IS8_EEE8max_sizeEv, symObjAddr: 0x5020, symBinAddr: 0x100005E30, symSize: 0x74 }
  - { offsetInCU: 0x10256, offset: 0x10256, size: 0x8, addend: 0x0, symName: __ZNKSt3__16vectorINS_4pairINS_12basic_stringIcNS_11char_traitsIcEENS_9allocatorIcEEEEiEENS5_IS8_EEE20__throw_length_errorB7v160006Ev, symObjAddr: 0x5094, symBinAddr: 0x100005EA4, symSize: 0x1C }
  - { offsetInCU: 0x10285, offset: 0x10285, size: 0x8, addend: 0x0, symName: __ZNSt3__116allocator_traitsINS_9allocatorINS_4pairINS_12basic_stringIcNS_11char_traitsIcEENS1_IcEEEEiEEEEE8max_sizeB7v160006IS9_vEEmRKS9_, symObjAddr: 0x50B0, symBinAddr: 0x100005EC0, symSize: 0x24 }
  - { offsetInCU: 0x102B3, offset: 0x102B3, size: 0x8, addend: 0x0, symName: __ZNKSt3__16vectorINS_4pairINS_12basic_stringIcNS_11char_traitsIcEENS_9allocatorIcEEEEiEENS5_IS8_EEE7__allocB7v160006Ev, symObjAddr: 0x50D4, symBinAddr: 0x100005EE4, symSize: 0x28 }
  - { offsetInCU: 0x102D8, offset: 0x102D8, size: 0x8, addend: 0x0, symName: __ZNKSt3__19allocatorINS_4pairINS_12basic_stringIcNS_11char_traitsIcEENS0_IcEEEEiEEE8max_sizeB7v160006Ev, symObjAddr: 0x50FC, symBinAddr: 0x100005F0C, symSize: 0x14 }
  - { offsetInCU: 0x102FD, offset: 0x102FD, size: 0x8, addend: 0x0, symName: __ZNKSt3__117__compressed_pairIPNS_4pairINS_12basic_stringIcNS_11char_traitsIcEENS_9allocatorIcEEEEiEENS5_IS8_EEE6secondB7v160006Ev, symObjAddr: 0x5110, symBinAddr: 0x100005F20, symSize: 0x24 }
  - { offsetInCU: 0x10322, offset: 0x10322, size: 0x8, addend: 0x0, symName: __ZNKSt3__122__compressed_pair_elemINS_9allocatorINS_4pairINS_12basic_stringIcNS_11char_traitsIcEENS1_IcEEEEiEEEELi1ELb1EE5__getB7v160006Ev, symObjAddr: 0x5134, symBinAddr: 0x100005F44, symSize: 0x14 }
  - { offsetInCU: 0x10347, offset: 0x10347, size: 0x8, addend: 0x0, symName: __ZNSt3__114__split_bufferINS_4pairINS_12basic_stringIcNS_11char_traitsIcEENS_9allocatorIcEEEEiEERNS5_IS8_EEEC2EmmSA_, symObjAddr: 0x5148, symBinAddr: 0x100005F58, symSize: 0xD4 }
  - { offsetInCU: 0x103BA, offset: 0x103BA, size: 0x8, addend: 0x0, symName: __ZNSt3__117__compressed_pairIPNS_4pairINS_12basic_stringIcNS_11char_traitsIcEENS_9allocatorIcEEEEiEERNS5_IS8_EEEC1B7v160006IDnSB_EEOT_OT0_, symObjAddr: 0x521C, symBinAddr: 0x10000602C, symSize: 0x3C }
  - { offsetInCU: 0x10411, offset: 0x10411, size: 0x8, addend: 0x0, symName: __ZNSt3__114__split_bufferINS_4pairINS_12basic_stringIcNS_11char_traitsIcEENS_9allocatorIcEEEEiEERNS5_IS8_EEE7__allocB7v160006Ev, symObjAddr: 0x5298, symBinAddr: 0x1000060A8, symSize: 0x28 }
  - { offsetInCU: 0x10436, offset: 0x10436, size: 0x8, addend: 0x0, symName: __ZNSt3__114__split_bufferINS_4pairINS_12basic_stringIcNS_11char_traitsIcEENS_9allocatorIcEEEEiEERNS5_IS8_EEE9__end_capB7v160006Ev, symObjAddr: 0x52C0, symBinAddr: 0x1000060D0, symSize: 0x28 }
  - { offsetInCU: 0x1045B, offset: 0x1045B, size: 0x8, addend: 0x0, symName: __ZNSt3__117__compressed_pairIPNS_4pairINS_12basic_stringIcNS_11char_traitsIcEENS_9allocatorIcEEEEiEERNS5_IS8_EEEC2B7v160006IDnSB_EEOT_OT0_, symObjAddr: 0x52E8, symBinAddr: 0x1000060F8, symSize: 0x48 }
  - { offsetInCU: 0x104B2, offset: 0x104B2, size: 0x8, addend: 0x0, symName: __ZNSt3__122__compressed_pair_elemIRNS_9allocatorINS_4pairINS_12basic_stringIcNS_11char_traitsIcEENS1_IcEEEEiEEEELi1ELb0EEC2B7v160006ISA_vEEOT_, symObjAddr: 0x5330, symBinAddr: 0x100006140, symSize: 0x20 }
  - { offsetInCU: 0x104F3, offset: 0x104F3, size: 0x8, addend: 0x0, symName: __ZNSt3__19allocatorINS_4pairINS_12basic_stringIcNS_11char_traitsIcEENS0_IcEEEEiEEE8allocateB7v160006Em, symObjAddr: 0x5350, symBinAddr: 0x100006160, symSize: 0x84 }
  - { offsetInCU: 0x10526, offset: 0x10526, size: 0x8, addend: 0x0, symName: __ZNSt3__117__compressed_pairIPNS_4pairINS_12basic_stringIcNS_11char_traitsIcEENS_9allocatorIcEEEEiEERNS5_IS8_EEE6secondB7v160006Ev, symObjAddr: 0x53D4, symBinAddr: 0x1000061E4, symSize: 0x28 }
  - { offsetInCU: 0x1054B, offset: 0x1054B, size: 0x8, addend: 0x0, symName: __ZNSt3__122__compressed_pair_elemIRNS_9allocatorINS_4pairINS_12basic_stringIcNS_11char_traitsIcEENS1_IcEEEEiEEEELi1ELb0EE5__getB7v160006Ev, symObjAddr: 0x53FC, symBinAddr: 0x10000620C, symSize: 0x18 }
  - { offsetInCU: 0x10570, offset: 0x10570, size: 0x8, addend: 0x0, symName: __ZNSt3__117__compressed_pairIPNS_4pairINS_12basic_stringIcNS_11char_traitsIcEENS_9allocatorIcEEEEiEERNS5_IS8_EEE5firstB7v160006Ev, symObjAddr: 0x5414, symBinAddr: 0x100006224, symSize: 0x24 }
  - { offsetInCU: 0x10595, offset: 0x10595, size: 0x8, addend: 0x0, symName: __ZNSt3__116reverse_iteratorIPNS_4pairINS_12basic_stringIcNS_11char_traitsIcEENS_9allocatorIcEEEEiEEEC1B7v160006ES9_, symObjAddr: 0x556C, symBinAddr: 0x10000637C, symSize: 0x34 }
  - { offsetInCU: 0x105CC, offset: 0x105CC, size: 0x8, addend: 0x0, symName: __ZNKSt3__116reverse_iteratorIPNS_4pairINS_12basic_stringIcNS_11char_traitsIcEENS_9allocatorIcEEEEiEEE4baseB7v160006Ev, symObjAddr: 0x55A0, symBinAddr: 0x1000063B0, symSize: 0x18 }
  - { offsetInCU: 0x105F1, offset: 0x105F1, size: 0x8, addend: 0x0, symName: __ZNKSt3__16vectorINS_4pairINS_12basic_stringIcNS_11char_traitsIcEENS_9allocatorIcEEEEiEENS5_IS8_EEE14__annotate_newB7v160006Em, symObjAddr: 0x55F4, symBinAddr: 0x100006404, symSize: 0xAC }
  - { offsetInCU: 0x10625, offset: 0x10625, size: 0x8, addend: 0x0, symName: __ZNSt3__129_AllocatorDestroyRangeReverseINS_9allocatorINS_4pairINS_12basic_stringIcNS_11char_traitsIcEENS1_IcEEEEiEEEENS_16reverse_iteratorIPS8_EEEC1B7v160006ERS9_RSC_SF_, symObjAddr: 0x56FC, symBinAddr: 0x10000650C, symSize: 0x44 }
  - { offsetInCU: 0x1067B, offset: 0x1067B, size: 0x8, addend: 0x0, symName: __ZNKSt3__116reverse_iteratorIPNS_4pairINS_12basic_stringIcNS_11char_traitsIcEENS_9allocatorIcEEEEiEEEdeB7v160006Ev, symObjAddr: 0x57AC, symBinAddr: 0x1000065BC, symSize: 0x28 }
  - { offsetInCU: 0x106AE, offset: 0x106AE, size: 0x8, addend: 0x0, symName: __ZNSt3__116reverse_iteratorIPNS_4pairINS_12basic_stringIcNS_11char_traitsIcEENS_9allocatorIcEEEEiEEEppB7v160006Ev, symObjAddr: 0x57D4, symBinAddr: 0x1000065E4, symSize: 0x20 }
  - { offsetInCU: 0x106D3, offset: 0x106D3, size: 0x8, addend: 0x0, symName: __ZNSt3__128__exception_guard_exceptionsINS_29_AllocatorDestroyRangeReverseINS_9allocatorINS_4pairINS_12basic_stringIcNS_11char_traitsIcEENS2_IcEEEEiEEEENS_16reverse_iteratorIPS9_EEEEE10__completeB7v160006Ev, symObjAddr: 0x57F4, symBinAddr: 0x100006604, symSize: 0x1C }
  - { offsetInCU: 0x106F8, offset: 0x106F8, size: 0x8, addend: 0x0, symName: __ZNSt3__128__exception_guard_exceptionsINS_29_AllocatorDestroyRangeReverseINS_9allocatorINS_4pairINS_12basic_stringIcNS_11char_traitsIcEENS2_IcEEEEiEEEENS_16reverse_iteratorIPS9_EEEEED1B7v160006Ev, symObjAddr: 0x5810, symBinAddr: 0x100006620, symSize: 0x2C }
  - { offsetInCU: 0x10721, offset: 0x10721, size: 0x8, addend: 0x0, symName: __ZNSt3__128__exception_guard_exceptionsINS_29_AllocatorDestroyRangeReverseINS_9allocatorINS_4pairINS_12basic_stringIcNS_11char_traitsIcEENS2_IcEEEEiEEEENS_16reverse_iteratorIPS9_EEEEEC1B7v160006ESE_, symObjAddr: 0x583C, symBinAddr: 0x10000664C, symSize: 0x34 }
  - { offsetInCU: 0x10759, offset: 0x10759, size: 0x8, addend: 0x0, symName: __ZNSt3__128__exception_guard_exceptionsINS_29_AllocatorDestroyRangeReverseINS_9allocatorINS_4pairINS_12basic_stringIcNS_11char_traitsIcEENS2_IcEEEEiEEEENS_16reverse_iteratorIPS9_EEEEEC2B7v160006ESE_, symObjAddr: 0x5870, symBinAddr: 0x100006680, symSize: 0x30 }
  - { offsetInCU: 0x10791, offset: 0x10791, size: 0x8, addend: 0x0, symName: __ZNSt3__129_AllocatorDestroyRangeReverseINS_9allocatorINS_4pairINS_12basic_stringIcNS_11char_traitsIcEENS1_IcEEEEiEEEENS_16reverse_iteratorIPS8_EEEC2B7v160006ERS9_RSC_SF_, symObjAddr: 0x58A0, symBinAddr: 0x1000066B0, symSize: 0x38 }
  - { offsetInCU: 0x107EC, offset: 0x107EC, size: 0x8, addend: 0x0, symName: __ZNSt3__119__to_address_helperINS_16reverse_iteratorIPNS_4pairINS_12basic_stringIcNS_11char_traitsIcEENS_9allocatorIcEEEEiEEEEvE6__callB7v160006ERKSB_, symObjAddr: 0x58D8, symBinAddr: 0x1000066E8, symSize: 0x4C }
  - { offsetInCU: 0x1080F, offset: 0x1080F, size: 0x8, addend: 0x0, symName: __ZNKSt3__116reverse_iteratorIPNS_4pairINS_12basic_stringIcNS_11char_traitsIcEENS_9allocatorIcEEEEiEEEptB7v160006Ev, symObjAddr: 0x5924, symBinAddr: 0x100006734, symSize: 0x24 }
  - { offsetInCU: 0x10834, offset: 0x10834, size: 0x8, addend: 0x0, symName: __ZNSt3__128__exception_guard_exceptionsINS_29_AllocatorDestroyRangeReverseINS_9allocatorINS_4pairINS_12basic_stringIcNS_11char_traitsIcEENS2_IcEEEEiEEEENS_16reverse_iteratorIPS9_EEEEED2B7v160006Ev, symObjAddr: 0x5948, symBinAddr: 0x100006758, symSize: 0x48 }
  - { offsetInCU: 0x1085D, offset: 0x1085D, size: 0x8, addend: 0x0, symName: __ZNKSt3__129_AllocatorDestroyRangeReverseINS_9allocatorINS_4pairINS_12basic_stringIcNS_11char_traitsIcEENS1_IcEEEEiEEEENS_16reverse_iteratorIPS8_EEEclB7v160006Ev, symObjAddr: 0x5990, symBinAddr: 0x1000067A0, symSize: 0xB4 }
  - { offsetInCU: 0x10883, offset: 0x10883, size: 0x8, addend: 0x0, symName: __ZNSt3__116reverse_iteratorINS0_IPNS_4pairINS_12basic_stringIcNS_11char_traitsIcEENS_9allocatorIcEEEEiEEEEEC1B7v160006ESA_, symObjAddr: 0x5AB4, symBinAddr: 0x1000068C4, symSize: 0x3C }
  - { offsetInCU: 0x108BA, offset: 0x108BA, size: 0x8, addend: 0x0, symName: __ZNSt3__116reverse_iteratorINS0_IPNS_4pairINS_12basic_stringIcNS_11char_traitsIcEENS_9allocatorIcEEEEiEEEEEppB7v160006Ev, symObjAddr: 0x5B74, symBinAddr: 0x100006984, symSize: 0x30 }
  - { offsetInCU: 0x108DF, offset: 0x108DF, size: 0x8, addend: 0x0, symName: __ZNKSt3__116reverse_iteratorINS0_IPNS_4pairINS_12basic_stringIcNS_11char_traitsIcEENS_9allocatorIcEEEEiEEEEE4baseB7v160006Ev, symObjAddr: 0x5BA4, symBinAddr: 0x1000069B4, symSize: 0x24 }
  - { offsetInCU: 0x10909, offset: 0x10909, size: 0x8, addend: 0x0, symName: __ZNSt3__119__to_address_helperINS_16reverse_iteratorINS1_IPNS_4pairINS_12basic_stringIcNS_11char_traitsIcEENS_9allocatorIcEEEEiEEEEEEvE6__callB7v160006ERKSC_, symObjAddr: 0x5BC8, symBinAddr: 0x1000069D8, symSize: 0x4C }
  - { offsetInCU: 0x1092C, offset: 0x1092C, size: 0x8, addend: 0x0, symName: __ZNKSt3__116reverse_iteratorINS0_IPNS_4pairINS_12basic_stringIcNS_11char_traitsIcEENS_9allocatorIcEEEEiEEEEEptB7v160006Ev, symObjAddr: 0x5C14, symBinAddr: 0x100006A24, symSize: 0x24 }
  - { offsetInCU: 0x10951, offset: 0x10951, size: 0x8, addend: 0x0, symName: __ZNKSt3__116reverse_iteratorINS0_IPNS_4pairINS_12basic_stringIcNS_11char_traitsIcEENS_9allocatorIcEEEEiEEEEEdeB7v160006Ev, symObjAddr: 0x5C38, symBinAddr: 0x100006A48, symSize: 0x34 }
  - { offsetInCU: 0x10984, offset: 0x10984, size: 0x8, addend: 0x0, symName: __ZNSt3__116reverse_iteratorIPNS_4pairINS_12basic_stringIcNS_11char_traitsIcEENS_9allocatorIcEEEEiEEEmmB7v160006Ev, symObjAddr: 0x5C6C, symBinAddr: 0x100006A7C, symSize: 0x20 }
  - { offsetInCU: 0x109A9, offset: 0x109A9, size: 0x8, addend: 0x0, symName: __ZNSt3__116reverse_iteratorINS0_IPNS_4pairINS_12basic_stringIcNS_11char_traitsIcEENS_9allocatorIcEEEEiEEEEEC2B7v160006ESA_, symObjAddr: 0x5C8C, symBinAddr: 0x100006A9C, symSize: 0x2C }
  - { offsetInCU: 0x109E0, offset: 0x109E0, size: 0x8, addend: 0x0, symName: __ZNSt3__116reverse_iteratorIPNS_4pairINS_12basic_stringIcNS_11char_traitsIcEENS_9allocatorIcEEEEiEEEC2B7v160006ES9_, symObjAddr: 0x5CB8, symBinAddr: 0x100006AC8, symSize: 0x28 }
  - { offsetInCU: 0x10A17, offset: 0x10A17, size: 0x8, addend: 0x0, symName: __ZNSt3__114__split_bufferINS_4pairINS_12basic_stringIcNS_11char_traitsIcEENS_9allocatorIcEEEEiEERNS5_IS8_EEED2Ev, symObjAddr: 0x5CE0, symBinAddr: 0x100006AF0, symSize: 0x80 }
  - { offsetInCU: 0x10A42, offset: 0x10A42, size: 0x8, addend: 0x0, symName: __ZNSt3__114__split_bufferINS_4pairINS_12basic_stringIcNS_11char_traitsIcEENS_9allocatorIcEEEEiEERNS5_IS8_EEE5clearB7v160006Ev, symObjAddr: 0x5D60, symBinAddr: 0x100006B70, symSize: 0x28 }
  - { offsetInCU: 0x10A67, offset: 0x10A67, size: 0x8, addend: 0x0, symName: __ZNKSt3__114__split_bufferINS_4pairINS_12basic_stringIcNS_11char_traitsIcEENS_9allocatorIcEEEEiEERNS5_IS8_EEE8capacityB7v160006Ev, symObjAddr: 0x5D88, symBinAddr: 0x100006B98, symSize: 0x40 }
  - { offsetInCU: 0x10A8C, offset: 0x10A8C, size: 0x8, addend: 0x0, symName: __ZNSt3__114__split_bufferINS_4pairINS_12basic_stringIcNS_11char_traitsIcEENS_9allocatorIcEEEEiEERNS5_IS8_EEE17__destruct_at_endB7v160006EPS8_, symObjAddr: 0x5DC8, symBinAddr: 0x100006BD8, symSize: 0x2C }
  - { offsetInCU: 0x10ABE, offset: 0x10ABE, size: 0x8, addend: 0x0, symName: __ZNSt3__114__split_bufferINS_4pairINS_12basic_stringIcNS_11char_traitsIcEENS_9allocatorIcEEEEiEERNS5_IS8_EEE17__destruct_at_endB7v160006EPS8_NS_17integral_constantIbLb0EEE, symObjAddr: 0x5DF4, symBinAddr: 0x100006C04, symSize: 0x94 }
  - { offsetInCU: 0x10AFE, offset: 0x10AFE, size: 0x8, addend: 0x0, symName: __ZNKSt3__114__split_bufferINS_4pairINS_12basic_stringIcNS_11char_traitsIcEENS_9allocatorIcEEEEiEERNS5_IS8_EEE9__end_capB7v160006Ev, symObjAddr: 0x5E88, symBinAddr: 0x100006C98, symSize: 0x28 }
  - { offsetInCU: 0x10B23, offset: 0x10B23, size: 0x8, addend: 0x0, symName: __ZNKSt3__117__compressed_pairIPNS_4pairINS_12basic_stringIcNS_11char_traitsIcEENS_9allocatorIcEEEEiEERNS5_IS8_EEE5firstB7v160006Ev, symObjAddr: 0x5EB0, symBinAddr: 0x100006CC0, symSize: 0x24 }
  - { offsetInCU: 0x10B48, offset: 0x10B48, size: 0x8, addend: 0x0, symName: __ZNKSt3__112basic_stringIcNS_11char_traitsIcEENS_9allocatorIcEEE4dataB7v160006Ev, symObjAddr: 0x60C8, symBinAddr: 0x100006ED8, symSize: 0x28 }
  - { offsetInCU: 0x10B8B, offset: 0x10B8B, size: 0x8, addend: 0x0, symName: __ZNKSt3__113basic_ostreamIcNS_11char_traitsIcEEE6sentrycvbB7v160006Ev, symObjAddr: 0x60F0, symBinAddr: 0x100006F00, symSize: 0x1C }
  - { offsetInCU: 0x10BB0, offset: 0x10BB0, size: 0x8, addend: 0x0, symName: __ZNSt3__119ostreambuf_iteratorIcNS_11char_traitsIcEEEC1B7v160006ERNS_13basic_ostreamIcS2_EE, symObjAddr: 0x6354, symBinAddr: 0x100007164, symSize: 0x34 }
  - { offsetInCU: 0x10BE7, offset: 0x10BE7, size: 0x8, addend: 0x0, symName: __ZNKSt3__18ios_base5flagsB7v160006Ev, symObjAddr: 0x6388, symBinAddr: 0x100007198, symSize: 0x18 }
  - { offsetInCU: 0x10C0D, offset: 0x10C0D, size: 0x8, addend: 0x0, symName: __ZNKSt3__19basic_iosIcNS_11char_traitsIcEEE4fillB7v160006Ev, symObjAddr: 0x63A0, symBinAddr: 0x1000071B0, symSize: 0x64 }
  - { offsetInCU: 0x10C34, offset: 0x10C34, size: 0x8, addend: 0x0, symName: __ZNKSt3__119ostreambuf_iteratorIcNS_11char_traitsIcEEE6failedB7v160006Ev, symObjAddr: 0x6404, symBinAddr: 0x100007214, symSize: 0x24 }
  - { offsetInCU: 0x10C59, offset: 0x10C59, size: 0x8, addend: 0x0, symName: __ZNSt3__115basic_streambufIcNS_11char_traitsIcEEE5sputnB7v160006EPKcl, symObjAddr: 0x6428, symBinAddr: 0x100007238, symSize: 0x3C }
  - { offsetInCU: 0x10C9A, offset: 0x10C9A, size: 0x8, addend: 0x0, symName: __ZNSt3__112basic_stringIcNS_11char_traitsIcEENS_9allocatorIcEEEC1B7v160006Emc, symObjAddr: 0x6464, symBinAddr: 0x100007274, symSize: 0x3C }
  - { offsetInCU: 0x10CE1, offset: 0x10CE1, size: 0x8, addend: 0x0, symName: __ZNSt3__112basic_stringIcNS_11char_traitsIcEENS_9allocatorIcEEEC2B7v160006Emc, symObjAddr: 0x64A0, symBinAddr: 0x1000072B0, symSize: 0x54 }
  - { offsetInCU: 0x10D28, offset: 0x10D28, size: 0x8, addend: 0x0, symName: __ZNSt3__119ostreambuf_iteratorIcNS_11char_traitsIcEEEC2B7v160006ERNS_13basic_ostreamIcS2_EE, symObjAddr: 0x64F4, symBinAddr: 0x100007304, symSize: 0x68 }
  - { offsetInCU: 0x10D5F, offset: 0x10D5F, size: 0x8, addend: 0x0, symName: __ZNKSt3__112basic_stringIcNS_11char_traitsIcEENS_9allocatorIcEEE13__get_pointerB7v160006Ev, symObjAddr: 0x6570, symBinAddr: 0x100007380, symSize: 0x54 }
  - { offsetInCU: 0x10D84, offset: 0x10D84, size: 0x8, addend: 0x0, symName: __ZNKSt3__112basic_stringIcNS_11char_traitsIcEENS_9allocatorIcEEE18__get_long_pointerB7v160006Ev, symObjAddr: 0x65C4, symBinAddr: 0x1000073D4, symSize: 0x28 }
  - { offsetInCU: 0x10DA9, offset: 0x10DA9, size: 0x8, addend: 0x0, symName: __ZNKSt3__112basic_stringIcNS_11char_traitsIcEENS_9allocatorIcEEE19__get_short_pointerB7v160006Ev, symObjAddr: 0x65EC, symBinAddr: 0x1000073FC, symSize: 0x28 }
  - { offsetInCU: 0x10DCE, offset: 0x10DCE, size: 0x8, addend: 0x0, symName: __ZNSt3__114pointer_traitsIPKcE10pointer_toB7v160006ERS1_, symObjAddr: 0x6614, symBinAddr: 0x100007424, symSize: 0x14 }
...
